((dp0
S'game-icf'
p1
S''
p2
sS'dist'
p3
NsS'csproj'
p4
S's3eGameThriveManaged'
p5
sS'module_path_append'
p6
NsS'global_path'
p7
S'c:\\users\\kasten\\documents\\gamethrive\\sdk\\marmalade'
p8
sS'system_path'
p9
S'c:\\marmalade\\7.4\\s3e\\makefile_builder'
p10
sS'no-emit'
p11
NsS'arm-float-abi'
p12
g2
sS'amd64'
p13
NsS'line-width'
p14
I80
sS'android-x86'
p15
NsS'disable-runtime-checks'
p16
NsS'release'
p17
NsS'no-make'
p18
NsS'xcode-x86-build-settings'
p19
g2
sS'optimise-size'
p20
NsS'output-name-debug'
p21
g2
sS'arm-fpu'
p22
g2
sS'rvct-version'
p23
S'none'
p24
sS'compiler'
p25
g2
sS'execute'
p26
NsS'compile-static'
p27
NsS'msvc-project'
p28
I01
sS'buildenv'
p29
S'VC12_WP8TOOLSET'
p30
sS'quick'
p31
NsS'module_path'
p32
NsS'use-release-std-libs'
p33
NsS'using_perforce'
p34
I00
sS'tizen-x86'
p35
NsS'mips-s3e'
p36
NsS's3e-api-lib-name'
p37
g2
sS'ios-no-pic'
p38
NsS'shared-arm-lib'
p39
NsS'arm-cpu'
p40
g2
sS'compile-thumb'
p41
NsS'no-ide'
p42
NsS'msvc-version'
p43
S'6.0'
p44
sS'arm'
p45
NsS'builddir'
p46
g2
sS'compile-debug-as-release'
p47
I0
sS'arm-arch'
p48
g2
sS'brief'
p49
NsS'dll'
p50
I1
sS'buildenv-toolset'
p51
S'WP8'
p52
sS'version'
p53
NsS'ccache'
p54
I0
sS'offline'
p55
NsS'ios-version'
p56
g2
sS'hub_data'
p57
g2
sS'fake_vc_call'
p58
NsS'jobs'
p59
I0
sS'linkflags'
p60
NsS'debug'
p61
NsS'xcode-build-order'
p62
g2
sS'done_defaults'
p63
I1
sS'path'
p64
NsS's3e-data-dir'
p65
g2
sS'enable-exceptions'
p66
NsS'osx-dll'
p67
NsS'extension'
p68
g2
sS'no-vc6'
p69
NsS'non-interactive'
p70
NsS'win32-console'
p71
NsS'dist-format'
p72
g2
sS's3e-force-arch'
p73
NsS'dump_defines'
p74
NsS'use_prebuilt'
p75
NsS'gcc-version'
p76
g2
sS'arm-debugger'
p77
g2
sS'use_temp_extension'
p78
NsS'verbose'
p79
I0
sS'log'
p80
NsS'no-strip'
p81
NsS'rebuild'
p82
NsS'win32-simulator-dll'
p83
NsS'strict'
p84
NsS'enable-global-path'
p85
NsS'cflags'
p86
NsS'dist-dir'
p87
g2
sS'xcode-arm-build-settings'
p88
g2
sS'jflags'
p89
NsS'csprojSDKRefs'
p90
g2
sS'test-assets'
p91
g2
sS'distcc'
p92
NsS'external-compiler'
p93
NsS'no-distcc'
p94
NsS'preinclude'
p95
NsS'using_sdk'
p96
I01
sS'nologo'
p97
NsS'warn-level'
p98
I2
sS'mkb_in'
p99
S'c:/Users/Kasten/Documents/GameThrive/SDK/Marmalade/s3eGameThrive/s3eGameThrive_wp8.mkb'
p100
sS'csprojDLLRef'
p101
(lp102
S'c:/users/kasten/documents/gamethrive/sdk/marmalade/s3egamethrive/incoming/wp8/GameThriveSDK.dll'
p103
aS'c:/users/kasten/documents/gamethrive/sdk/marmalade/s3egamethrive/incoming/wp8/Newtonsoft.Json.dll'
p104
asS'test-config'
p105
g2
sS'list-targets'
p106
NsS'makedeps'
p107
NsS'default-buildenv'
p108
S'vc12'
p109
sS'preprocess-java'
p110
NsS'defines'
p111
NsS'lib'
p112
NsS'global_argv'
p113
(lp114
S'C:\\Marmalade\\7.4\\s3e\\makefile_builder\\mkb.py'
p115
aS'c:/Users/Kasten/Documents/GameThrive/SDK/Marmalade/s3eGameThrive/s3eGameThrive_wp8.mkb'
p116
aS'--default-buildenv=vc12'
p117
aS'--msvc-project'
p118
asS'make'
p119
NsS'optimise-speed'
p120
NsS'internal'
p121
NsS'enable-stdinc'
p122
NsS'deploy-only'
p123
NsS'x86'
p124
NsS'deploy'
p125
g2
sS'mips'
p126
NsS'xcode-build-settings'
p127
g2
sS'incredibuild'
p128
NsS'strict-compile'
p129
NsS'use-auto-subdirs'
p130
NsS'app-icf'
p131
g2
sS'deployargs'
p132
NsS'iosnativedebug'
p133
NsS'mkf_in'
p134
(lp135
S'c:\\users\\kasten\\documents\\gamethrive\\sdk\\marmalade\\s3egamethrive\\s3egamethrive_wp8_cs.mkf'
p136
aS'c:\\users\\kasten\\documents\\gamethrive\\sdk\\marmalade\\s3egamethrive\\s3egamethrive_build.mkf'
p137
aS'c:\\marmalade\\7.4\\s3e\\edk\\edk.mkf'
p138
asS'strict-mkb'
p139
NsS'executeargs'
p140
NsS'clean'
p141
NsS'no-asm'
p142
NsS'output-name'
p143
S'lib/wp8/$(PlatformTarget)/$(Configuration)/s3eGameThriveExtension.dll'
p144
sS'no-modules'
p145
NsS'find_define'
p146
g2
s(dp147
S'c:\\marmalade\\7.4\\s3e\\makefile_builder\\plugins\\Emitter.pyc'
p148
F1409106506.0
sS'c:\\marmalade\\7.4\\s3e\\makefile_builder\\templates\\ws8_ext_sln.pyc'
p149
F1409106508.0
sS'c:\\marmalade\\7.4\\s3e\\makefile_builder\\templates\\MainWindow.xib'
p150
F1409103204.0
sS'c:\\marmalade\\7.4\\s3e\\makefile_builder\\templates\\template.suo'
p151
F1409103204.0
sS'c:\\marmalade\\7.4\\s3e\\makefile_builder\\plugins\\xcode4_schememanagement.py'
p152
F1409103204.0
sS'c:\\marmalade\\7.4\\s3e\\makefile_builder\\templates\\ws81_sln.pyc'
p153
F1409106508.0
sS'c:\\marmalade\\7.4\\s3e\\makefile_builder\\templates\\win8_ext_csproj.pyc'
p154
F1409106508.0
sS'c:\\marmalade\\7.4\\s3e\\makefile_builder\\mkb_option.pyc'
p155
F1409106506.0
sS'c:\\marmalade\\7.4\\s3e\\makefile_builder\\plugins\\s3e_xcode.py'
p156
F1409103204.0
sS'c:\\marmalade\\7.4\\s3e\\makefile_builder\\plugins\\s3e_scons.pyc'
p157
F1409106506.0
sS'c:\\marmalade\\7.4\\s3e\\makefile_builder\\templates\\win8_vcxproj.pyc'
p158
F1409106508.0
sS'c:\\marmalade\\7.4\\s3e\\makefile_builder\\plugins\\null.pyc'
p159
F1409106506.0
sS'c:\\marmalade\\7.4\\s3e\\makefile_builder\\templates\\vc8_user.pyc'
p160
F1409106506.0
sS'c:\\marmalade\\7.4\\s3e\\makefile_builder\\templates\\wp81_ext_sln.pyc'
p161
F1409106508.0
sS'c:\\marmalade\\7.4\\s3e\\makefile_builder\\templates\\scons.pyc'
p162
F1409106506.0
sS'c:\\marmalade\\7.4\\s3e\\makefile_builder\\templates\\wp8_ext_csproj.pyc'
p163
F1409106508.0
sS'c:\\marmalade\\7.4\\s3e\\makefile_builder\\templates\\xcode_pbxuser.py'
p164
F1409103204.0
sS'c:\\marmalade\\7.4\\s3e\\makefile_builder\\plugins\\s3e_qmake.py'
p165
F1409103204.0
sS'c:\\marmalade\\7.4\\s3e\\makefile_builder\\plugins\\iphone.pyc'
p166
F1409106506.0
sS'c:\\marmalade\\7.4\\s3e\\makefile_builder\\templates\\ws81_ext_csproj.pyc'
p167
F1409106508.0
sS'c:\\marmalade\\7.4\\s3e\\makefile_builder\\templates\\vc6_opt.pyc'
p168
F1409106506.0
sS'c:\\marmalade\\7.4\\s3e\\makefile_builder\\plugins\\s3e_win8.pyc'
p169
F1409106506.0
sS'c:\\marmalade\\7.4\\s3e\\makefile_builder\\mkb_main.pyc'
p170
F1409106506.0
sS'c:\\marmalade\\7.4\\s3e\\makefile_builder\\templates\\wp8_csproj.pyc'
p171
F1409106508.0
sS'c:\\marmalade\\7.4\\s3e\\makefile_builder\\templates\\win32_vcproj.pyc'
p172
F1409106506.0
sS'c:\\marmalade\\7.4\\s3e\\makefile_builder\\templates\\win8_sln.pyc'
p173
F1409106508.0
sS'c:\\marmalade\\7.4\\s3e\\makefile_builder\\mkb_launcher.exe'
p174
F1409103760.0
sS'c:\\marmalade\\7.4\\s3e\\makefile_builder\\plugins\\osx_xcode.pyc'
p175
F1409106506.0
sS'c:\\marmalade\\7.4\\s3e\\makefile_builder\\plugins'
p176
F1411100331.0521703
sS'c:\\marmalade\\7.4\\s3e\\makefile_builder\\templates\\wp8_csproj_user.pyc'
p177
F1409106508.0
sS'c:\\marmalade\\7.4\\s3e\\makefile_builder\\plugins\\win32_vc6.pyc'
p178
F1409106506.0
sS'c:\\marmalade\\7.4\\s3e\\makefile_builder\\plugins\\s3e_vc6.pyc'
p179
F1409106506.0
sS'c:\\marmalade\\7.4\\s3e\\makefile_builder\\templates\\vc10_user.pyc'
p180
F1409106506.0
sS'c:\\marmalade\\7.4\\s3e\\makefile_builder\\docs\\deprecated.defines.txt'
p181
F1409103204.0
sS'c:\\marmalade\\7.4\\s3e\\makefile_builder\\templates\\wp81_csproj_user.pyc'
p182
F1409106508.0
sS'c:\\marmalade\\7.4\\s3e\\makefile_builder\\templates\\ws81_ext_sln.pyc'
p183
F1409106508.0
sS'c:\\marmalade\\7.4\\s3e\\makefile_builder\\templates\\make.py'
p184
F1409103204.0
sS'c:\\marmalade\\7.4\\s3e\\makefile_builder\\plugins\\wp81_wp81.pyc'
p185
F1409106506.0
sS'c:\\marmalade\\7.4\\s3e\\makefile_builder\\plugins\\s3e_qmake.pyc'
p186
F1411100331.005139
sS'c:\\marmalade\\7.4\\s3e\\makefile_builder\\templates\\mips_linker_script'
p187
F1409103204.0
sS'c:\\marmalade\\7.4\\s3e\\makefile_builder\\plugins\\deploy.pyc'
p188
F1409106506.0
sS'c:\\marmalade\\7.4\\s3e\\makefile_builder\\plugins\\ws81_ws81.pyc'
p189
F1409106506.0
sS'c:\\marmalade\\7.4\\s3e\\makefile_builder\\mkb.py'
p190
F1409103204.0
sS'c:\\marmalade\\7.4\\s3e\\makefile_builder\\docs\\options.txt'
p191
F1409103204.0
sS'c:\\marmalade\\7.4\\s3e\\makefile_builder\\mkb_parser.pyc'
p192
F1409106506.0
sS'c:\\marmalade\\7.4\\s3e\\makefile_builder\\templates\\qmake_user.py'
p193
F1409103204.0
sS'c:\\marmalade\\7.4\\s3e\\makefile_builder\\docs\\mkb.defines.txt'
p194
F1409103204.0
sS'c:\\marmalade\\7.4\\s3e\\makefile_builder\\deployment.pyc'
p195
F1409106506.0
sS'c:\\marmalade\\7.4\\s3e\\makefile_builder\\plugins\\wp8_wp8.pyc'
p196
F1409106506.0
sS'c:\\marmalade\\7.4\\s3e\\makefile_builder\\plugins\\linux_scons.pyc'
p197
F1409106506.0
sS'c:\\marmalade\\7.4\\s3e\\makefile_builder\\plugins\\s3e_web.pyc'
p198
F1409106506.0
sS'c:\\marmalade\\7.4\\s3e\\makefile_builder\\plugins\\S3EEmitter.pyc'
p199
F1409106506.0
sS'c:\\marmalade\\7.4\\s3e\\makefile_builder\\plugins\\Win8Emitter.pyc'
p200
F1409106506.0
sS'c:\\marmalade\\7.4\\s3e\\makefile_builder\\templates\\xcode4_arm.xcscheme'
p201
F1409103204.0
sS'c:\\marmalade\\7.4\\s3e\\makefile_builder\\plugins\\vc6_utils.pyc'
p202
F1409106506.0
sS'c:\\marmalade\\7.4\\s3e\\makefile_builder\\templates\\wp8_vcxproj.pyc'
p203
F1409106508.0
sS'c:\\marmalade\\7.4\\s3e\\makefile_builder\\templates\\xcode4.xcscheme'
p204
F1409103204.0
sS'c:\\marmalade\\7.4\\s3e\\makefile_builder\\plugins\\MakeEmitter.pyc'
p205
F1409106506.0
sS'c:\\marmalade\\7.4\\s3e\\makefile_builder\\plugins\\java.pyc'
p206
F1409106506.0
sS'c:\\marmalade\\7.4\\s3e\\makefile_builder\\plugins\\XcodeEmitter.pyc'
p207
F1411100330.886406
sS'c:\\marmalade\\7.4\\s3e\\makefile_builder\\plugins\\XcodeEmitter.py'
p208
F1409103204.0
sS'c:\\marmalade\\7.4\\s3e\\makefile_builder\\mkb_globals.pyc'
p209
F1409106506.0
sS'c:\\marmalade\\7.4\\s3e\\makefile_builder\\tool_launcher.exe'
p210
F1409103760.0
sS'c:\\marmalade\\7.4\\s3e\\makefile_builder\\mkb_util.pyc'
p211
F1409106506.0
sS'c:\\marmalade\\7.4\\s3e\\makefile_builder\\plugins\\xcode4_schememanagement.pyc'
p212
F1411100330.8954127
sS'c:\\marmalade\\7.4\\s3e\\makefile_builder\\templates\\ws8_sln.pyc'
p213
F1409106508.0
sS'c:\\marmalade\\7.4\\s3e\\makefile_builder\\templates\\win32_sln.pyc'
p214
F1409106506.0
sS'c:\\marmalade\\7.4\\s3e\\makefile_builder\\templates\\wp81_ext_csproj.pyc'
p215
F1409106508.0
sS'c:\\marmalade\\7.4\\s3e\\makefile_builder\\plugins\\s3e_wp81.pyc'
p216
F1409106506.0
sS'c:\\marmalade\\7.4\\s3e\\makefile_builder\\plugins\\s3e_wp8.pyc'
p217
F1409106506.0
sS'c:\\marmalade\\7.4\\s3e\\makefile_builder\\templates\\qmake.py'
p218
F1409103204.0
sS'c:\\marmalade\\7.4\\s3e\\makefile_builder\\templates\\gdb_start.txt'
p219
F1409103204.0
sS'c:\\marmalade\\7.4\\s3e\\makefile_builder\\templates'
p220
F1411100123.9141958
sS'c:\\marmalade\\7.4\\s3e\\makefile_builder\\templates\\ws8_ext_csproj.pyc'
p221
F1409106508.0
sS'c:\\marmalade\\7.4\\s3e\\makefile_builder\\templates\\win8_csproj_user.pyc'
p222
F1409106508.0
sS'c:\\marmalade\\7.4\\s3e\\makefile_builder\\templates\\vc7_suo.pyc'
p223
F1409106506.0
sS'c:\\marmalade\\7.4\\s3e\\makefile_builder\\plugins\\VisualStudioEmitter.pyc'
p224
F1409106506.0
sS'c:\\marmalade\\7.4\\s3e\\makefile_builder\\templates\\linker_script'
p225
F1409103204.0
sS'c:\\marmalade\\7.4\\s3e\\makefile_builder\\docs\\deprecated.options.txt'
p226
F1409103204.0
sS'c:\\marmalade\\7.4\\s3e\\makefile_builder\\plugins\\s3e_xcode.pyc'
p227
F1411100331.054171
sS'c:\\marmalade\\7.4\\s3e\\makefile_builder\\plugins\\s3e_ws8.pyc'
p228
F1409106506.0
sS'c:\\marmalade\\7.4\\s3e\\makefile_builder\\templates\\xcode4_DeployTool.xcscheme'
p229
F1409103204.0
sS'c:\\marmalade\\7.4\\s3e\\makefile_builder\\templates\\ws8_csproj_user.pyc'
p230
F1409106508.0
sS'c:\\marmalade\\7.4\\s3e\\makefile_builder\\plugins\\osx_scons.pyc'
p231
F1409106506.0
sS'c:\\marmalade\\7.4\\s3e\\makefile_builder\\templates\\ws81_csproj.pyc'
p232
F1409106508.0
sS'c:\\marmalade\\7.4\\s3e\\makefile_builder\\templates\\wp8_sln.pyc'
p233
F1409106508.0
sS'c:\\marmalade\\7.4\\s3e\\makefile_builder\\docs'
p234
F1411100123.9332082
sS'c:\\marmalade\\7.4\\s3e\\makefile_builder\\plugins\\ws8_ws8.pyc'
p235
F1409106506.0
sS'c:\\marmalade\\7.4\\s3e\\makefile_builder\\docs\\deployment_options.txt'
p236
F1409103204.0
sS'c:\\marmalade\\7.4\\s3e\\makefile_builder\\templates\\win32_vcxproj_filters.pyc'
p237
F1409106506.0
sS'c:\\marmalade\\7.4\\s3e\\makefile_builder\\templates\\win32_dsw.pyc'
p238
F1409106506.0
sS'c:\\marmalade\\7.4\\s3e\\makefile_builder\\plugins\\s3e_ws81.pyc'
p239
F1409106506.0
sS'c:\\marmalade\\7.4\\s3e\\makefile_builder\\plugins\\SConsEmitter.pyc'
p240
F1409106506.0
sS'c:\\marmalade\\7.4\\s3e\\makefile_builder\\templates\\wp81_vcxproj.pyc'
p241
F1409106508.0
sS'c:\\marmalade\\7.4\\s3e\\makefile_builder\\plugins\\win8_utils.pyc'
p242
F1409106506.0
sS'c:\\marmalade\\7.4\\s3e\\makefile_builder\\templates\\template.opt'
p243
F1409103204.0
sS'c:\\marmalade\\7.4\\s3e\\makefile_builder\\plugins\\vc7_utils.pyc'
p244
F1409106506.0
sS'c:\\marmalade\\7.4\\s3e\\makefile_builder\\templates\\win32_dsp.pyc'
p245
F1409106506.0
sS'c:\\marmalade\\7.4\\s3e\\makefile_builder\\plugins\\s3e_make.pyc'
p246
F1409106506.0
sS'c:\\marmalade\\7.4\\s3e\\makefile_builder\\templates\\rvct_linker_script'
p247
F1409103204.0
sS'c:\\marmalade\\7.4\\s3e\\makefile_builder\\templates\\win8_csproj.pyc'
p248
F1409106508.0
sS'c:\\marmalade\\7.4\\s3e\\makefile_builder\\templates\\xcode.py'
p249
F1409103204.0
sS'c:\\marmalade\\7.4\\s3e\\makefile_builder\\templates\\ws8_vcxproj.pyc'
p250
F1409106508.0
sS'c:\\marmalade\\7.4\\s3e\\makefile_builder\\templates\\wp81_csproj.pyc'
p251
F1409106508.0
sS'c:\\marmalade\\7.4\\s3e\\makefile_builder\\mkb_upstream.pyc'
p252
F1409106506.0
sS'c:\\marmalade\\7.4\\s3e\\makefile_builder\\templates\\win32_vcxproj.pyc'
p253
F1409106506.0
sS'c:\\marmalade\\7.4\\s3e\\makefile_builder\\templates\\ws8_csproj.pyc'
p254
F1409106508.0
sS'c:\\marmalade\\7.4\\s3e\\makefile_builder\\docs\\parse_options.pyc'
p255
F1409106508.0
sS'c:\\marmalade\\7.4\\s3e\\makefile_builder\\templates\\Info.plist'
p256
F1409103204.0
sS'c:\\marmalade\\7.4\\s3e\\makefile_builder\\templates\\wp81_sln.pyc'
p257
F1409106508.0
sS'c:\\marmalade\\7.4\\s3e\\makefile_builder\\templates\\ws81_csproj_user.pyc'
p258
F1409106508.0
sS'c:\\marmalade\\7.4\\s3e\\makefile_builder\\templates\\ws81_vcxproj.pyc'
p259
F1409106508.0
sccopy_reg
_reconstructor
p260
(cmkb_main
MkbFile
p261
c__builtin__
object
p262
Ntp263
Rp264
(dp265
g3
(lp266
sS'target_name'
p267
S'c:/Users/Kasten/Documents/GameThrive/SDK/Marmalade/s3eGameThrive/lib/wp8/$(PlatformTarget)/$(Configuration)/s3eGameThriveExtension.dll'
p268
sS'current_file'
p269
g100
sS'package_path'
p270
(lp271
sS'post_build'
p272
(lp273
sS'librarys'
p274
(lp275
g260
(cmkb_main
Library
p276
g262
Ntp277
Rp278
(dp279
S'name'
p280
S'edk.lib'
p281
sS'expand_name'
p282
I01
sS'include_spec_rvct_objs'
p283
(lp284
sS'include_all_objs'
p285
NsS'share_arm'
p286
NsS'arch'
p287
NsS'nodebug'
p288
I00
sg25
NsbasS'library_paths'
p289
(lp290
g260
(cmkb_main
LibraryPath
p291
g262
Ntp292
Rp293
(dp294
S'expand_path'
p295
I01
sg280
S'c:/marmalade/7.4/s3e/edk'
p296
sbasS'macros'
p297
(dp298
S'IW_MKF_S3EGAMETHRIVE_BUILD'
p299
NsS'I3D_OS_WP8'
p300
NsS'I3D_PLATFORM_WP8LOADER'
p301
NsS'WIN8_PLATFORM'
p302
NsS'IW_ASSERTION_CHANNEL_GAMETHRIVE'
p303
S'1'
p304
sS'IW_PLATFORM_WP8LOADER'
p305
NsS'IW_DEBUG'
p306
NsS'IW_SDK'
p307
NsS'IW_USE_ASSERTIONS'
p308
NsS'IW_MKF_S3EGAMETHRIVE_WP8_CS'
p309
NsS'IW_TRACE_CHANNEL_GAMETHRIVE'
p310
g304
sS'S3E_EXT_GAMETHRIVE'
p311
NsS'IW_TRACE_CHANNEL_GAMETHRIVE_VERBOSE'
p312
S'2'
p313
sS'IW_MKF_EDK'
p314
NsS'S3E_BUILD_EXT'
p315
NsS'WIN8_PHONE_PLATFORM'
p316
NsS'IW_USE_TRACING'
p317
NssS'done_warnings'
p318
(dp319
sS'subprojects'
p320
(dp321
g136
S's3eGameThrive_wp8_cs'
p322
sg138
S'c:\\marmalade\\7.4/s3e/edk'
p323
sg137
S's3eGameThrive_build'
p324
ssS'deployments'
p325
(dp326
S'Default'
p327
g260
(cdeployment
Deployment
p328
g262
Ntp329
Rp330
(dp331
S'got_version'
p332
I0
sS'assets'
p333
g327
sS'mkb'
p334
g264
sS'target'
p335
Nsg287
(lp336
sS'options'
p337
(dp338
S'iphone-link-lib'
p339
(lp340
sS'game-icf'
p341
NsS'android-tm'
p342
NsS'winmobile-icon32'
p343
NsS'ws8-logo-image150x150'
p344
NsS'wp81-logo-image150x150'
p345
NsS'ws81-product-version'
p346
NsS'osx-ext-dll'
p347
(lp348
sS'iphone-provisioning-profile'
p349
NsS'ws8-splash-screen-image620x300'
p350
NsS'wp81-extra-pri'
p351
(lp352
sS'ws8-ext-capabilities'
p353
(lp354
sS'android-icon-hdpi'
p355
NsS'brew-icon-large'
p356
NsS'iphone-splash-full-orient'
p357
NsS'wp8-tile-fliptemplate-supports-large'
p358
NsS'iphone-show-status-bar'
p359
NsS'roku-requires-mkv'
p360
NsS'long-caption'
p361
NsS'android-pkgname'
p362
NsS'wp81-publisher-display-name'
p363
NsS'blackberry-permissions-read-device-identifying-information'
p364
NsS'ws81-certificate-end-date'
p365
NsS'psp-dlgcontentid'
p366
NsS'iphone-minimum-ios-version'
p367
NsS'target-folder'
p368
NsS'tizen-dist1-CA-path'
p369
NsS'symbian-icon2-format'
p370
NsS'tizen-author-key'
p371
NsS'firefoxos-icon-128X128'
p372
NsS'iphone-region'
p373
NsS'uiq3-icon3-mask'
p374
NsS'brew-encoding'
p375
NsS'android-x86'
p376
NsS'nds-initialcode'
p377
NsS'iphone-persistent-wifi'
p378
NsS'psp-snd0'
p379
NsS'roku-icon-focus-hd'
p380
NsS'winmobile-install-folder'
p381
NsS'android-external-res'
p382
(lp383
sS'ws8-product-version'
p384
NsS'brew-priviledges'
p385
NsS'iphone-icon-ipad-search'
p386
NsS'iphone-icon-ipad'
p387
NsS'roku-hidden'
p388
NsS'psp-titlename'
p389
NsS'wp81-product-version'
p390
NsS'symbian-icon1-mask'
p391
NsS'psp-parentallevel'
p392
NsS'splashscreen-use-all'
p393
NsS'wp8-author'
p394
NsS'symbian-disable-ecompxl'
p395
NsS'splashscreen-auto-onblack'
p396
NsS'win32-ext-dll'
p397
(lp398
sS'iphone-development-key'
p399
NsS'winmobile-icon48'
p400
NsS'android-unsigned'
p401
NsS'osx-appstore-category'
p402
NsS'version-revision'
p403
NsS'roku-icon-focus-sd'
p404
NsS'android-keystore'
p405
NsS'winmobile-png90'
p406
NsS'iphone-icon-ipad-high-res'
p407
NsS'iphone-disable-ipad'
p408
NsS'wp8-product-id'
p409
NsS'ws81-splash-screen-background'
p410
NsS'wp8-ext-capabilities'
p411
(lp412
sS'iphone-ipad-only'
p413
NsS'symbian-icon1-mask-black'
p414
NsS'iphone-nosign'
p415
NsS'iphone-bundle-localisations'
p416
NsS'winmobile-png60'
p417
NsS'blackberry-permissions-access-shared'
p418
NsS'blackberry-author'
p419
NsS'android-icon-xxxhdpi'
p420
NsS'olddeploytoolstyle'
p421
NsS'android_icon_gallery'
p422
NsS'wp81-splash-screen-background'
p423
NsS'winmobile-cab-compress'
p424
NsS'iphone-info-plist'
p425
NsS'ws81-ext-managed-dll'
p426
(lp427
sS'playbook-cskpass'
p428
NsS'ws8-distribution-pfx-password'
p429
NsS'symbian-key'
p430
NsS'app-icf'
p431
NsS'blackberry-storepass'
p432
NsS'wp8-tile-fliptemplate-back-title'
p433
NsS'brew-compress-loader'
p434
NsS'win32-pref-windowposy'
p435
NsS'win32-pref-windowposx'
p436
NsS'roku-requires-audiometadata'
p437
NsS'wp8-exclude-low-mem'
p438
NsS'iphone-icon-ipad-search-high-res'
p439
NsS'iphone-link-libdir'
p440
(lp441
sS'wp81-ext-capabilities'
p442
(lp443
sS'blackberry-permissions-read-geolocation'
p444
NsS'ws81-ext-device-capabilities'
p445
(lp446
sS'tizen-signed'
p447
NsS'android-extra-application-manifest'
p448
(lp449
sS'ws8-ext-native-dll'
p450
(lp451
sS'symbian-icon2-mask'
p452
NsS'iphone-backgroundmode-audio'
p453
NsS'webos-memory'
p454
NsS'android-keypass'
p455
NsS'name'
p456
NsS'uiq3-icon2-format'
p457
NsS'roku-splash-screen-sd'
p458
NsS'auto-derbh'
p459
NsS'roku-icon-side-sd'
p460
NsS'android-external-assets'
p461
(lp462
sS'nds-publicsavedatasize'
p463
NsS'splashscreen'
p464
NsS'brew-mif'
p465
NsS'iphone-icon-settings-high-res'
p466
NsS'android-manifest'
p467
NsS'ws81-splash-screen-image620x300'
p468
NsS'wp81-product-name'
p469
NsS's3e-compression'
p470
NsS'tizen-author-password'
p471
NsS'wp8-tile-fliptemplate-back-content'
p472
NsS'blackberry-extra-descriptor'
p473
(lp474
sS'symbian-icon1'
p475
NsS'symbian-icon2'
p476
NsS'android-extra-styles-file'
p477
NsS'wp81-publisher-id'
p478
NsS'nds-bannertitle-jp'
p479
NsS'wp81-logo-image44x44'
p480
NsS'osx-sign-for-store'
p481
NsS'symbian7-uid'
p482
NsS'wp8-tile-fliptemplate-large-back-content'
p483
NsS'wp81-phone-publisher-id'
p484
NsS'nds-bannertitle-cn'
p485
NsS'iphone-distribution-key'
p486
NsS'android-icon-gallery'
p487
NsS'blackberry-keystore'
p488
NsS'ws8-extra-res'
p489
(lp490
sS'caption'
p491
NsS'android-extra-manifest'
p492
(lp493
sS'wp81-ext-sdk-ref'
p494
(lp495
sS'android-icon-xxhdpi'
p496
NsS'version-minor'
p497
NsS'iphone-link-libdirs'
p498
(lp499
sS'iphone-icon-large'
p500
NsS'symbian-keypwd'
p501
NsS'symbian8-uid'
p502
NsS'symbian-cert-key'
p503
NsS'winmobile-ampd-part-number'
p504
NsS'arch'
p505
NsS'nds-romheadertemplate'
p506
NsS'webos-icon'
p507
NsS'wp81-ext-device-capabilities'
p508
(lp509
sS'psp-dlgprotectdocument'
p510
NsS'ws8-splash-screen-background'
p511
NsS'android-icon-mdpi'
p512
NsS'nds-icon'
p513
NsS'ws8-custom-manifest-fill'
p514
NsS'iphone-development-cert'
p515
NsS'blackberry-phone-icon'
p516
NsS'iphone-enable-4inch-retina'
p517
NsS'ws8-custom-manifest'
p518
NsS'version-major'
p519
NsS'wp8-genre-isgame'
p520
NsS'uiq3-uid'
p521
NsS'iphone-splash-retina-generate'
p522
NsS'tizen-hw-acceleration'
p523
NsS'iphone_bundle_localisations'
p524
NsS'tizen-dist1-key'
p525
NsS'wp81-custom-manifest-fill'
p526
NsS'wp8-custom-manifest'
p527
NsS'nds-bannertitle-ge'
p528
NsS'iphone-sign-for-distribution'
p529
NsS'wp8-tile-fliptemplate-medium-back-image'
p530
NsS'wp8-publisher-id'
p531
NsS'icon'
p532
NsS'wp8-exclude-wxga'
p533
NsS'wp81-identity-name'
p534
NsS'uiq3-icon2-mask'
p535
NsS'iphone-splashscreen-portrait'
p536
NsS'iphone-icon-high-res'
p537
NsS'ws81-distribution-pfx-password'
p538
NsS'playbook-author'
p539
NsS'android-icon-xhdpi'
p540
NsS'linux-ext-lib'
p541
(lp542
sS'blackberry-permissions-access-internet'
p543
NsS'wp8-exclude-720p'
p544
NsS'lgtv-use-drm'
p545
NsS'symbian-platsecflags'
p546
NsS'ws8-description'
p547
NsS'blackberry-playbook-icon'
p548
NsS'copyright'
p549
NsS'win32-gles-directory'
p550
NsS'version'
p551
NsS'ws81-logo-image150x150'
p552
NsS'osx-signing-identity-app'
p553
NsS'tizen-project-url'
p554
NsS'symbian-icon-svg'
p555
NsS'android-aliasname'
p556
NsS'psp-dlgmanual'
p557
NsS'brew-uid'
p558
NsS'symbian-locationsupport'
p559
NsS'wp81-logo-image50x50'
p560
NsS'ws8-ext-managed-dll'
p561
(lp562
sS'nds-bannertitle-it'
p563
NsS'ws81-custom-manifest-fill'
p564
NsS'ws8-ext-sdk-manifest-part'
p565
(lp566
sS'uiq3-icon1-mask'
p567
NsS'winmobile-icon16'
p568
NsS'ws8-product-name'
p569
NsS'blackberry-cskpass'
p570
NsS'winmobile-start-menu-folder'
p571
NsS'brew-clsid'
p572
NsS'roku-requires-bluetooth'
p573
NsS'ws8-ext-device-capabilities'
p574
(lp575
sS'blackberry-permissions-use-camera'
p576
NsS'ws81-extra-pri'
p577
(lp578
sS'iphone-prerendered-icon'
p579
NsS'iphone-appid'
p580
NsS'ws8-identity-name'
p581
NsS'tizen-dist2-CA-path'
p582
NsS'android-external-jars'
p583
(lp584
sS'winmobile-icon64'
p585
NsS'blackberry-permissions-post-notification'
p586
NsS'winmobile-setup-dll'
p587
NsS'firefoxos-manifest'
p588
NsS'win8-winrt-extra-res'
p589
(lp590
sS'wp81-ext-sdk-manifest-part'
p591
(lp592
sS'symbian9-uid'
p593
NsS'iphone-icon-ipad-ios7'
p594
NsS'winmobile-trace-file'
p595
NsS'roku-splash-color'
p596
NsS'psp-appversion'
p597
NsS'ws8-publisher-id'
p598
NsS'android-supports-gl-texture'
p599
(lp600
sS'winmobile-png45'
p601
NsS'wp81-extra-res'
p602
(lp603
sS'android-storepass'
p604
NsS'osx-signing-identity-inst'
p605
NsS'android-custom-activity'
p606
NsS'psp-discversion'
p607
NsS'wp81-ext-managed-dll'
p608
(lp609
sS'psp-copyright'
p610
NsS'embed-icf'
p611
NsS'tizen-manifest'
p612
NsS'osx-icon'
p613
NsS'webos-appinfo'
p614
NsS'psp-dlghealthwarning'
p615
NsS'webos-appid'
p616
NsS'roku-icon-side-hd'
p617
NsS'iphone-icon-ipad-search-high-res-ios7'
p618
NsS'ws81-ext-sdk-manifest-part'
p619
(lp620
sS'loader_name_prefix'
p621
NsS'nds-titlename'
p622
NsS'ws81-logo-image50x50'
p623
NsS'wp81-custom-manifest'
p624
NsS'osx-entitlements-plist'
p625
NsS'psp-dlgicon0'
p626
NsS'winmobile-nouninstall'
p627
NsS'psp-discid'
p628
NsS'tizen-dist2-password'
p629
NsS'ws8-ext-sdk-ref'
p630
(lp631
sS'iphone-extra-string'
p632
(lp633
sS'version-string'
p634
NsS'iphone-icon-high-res-ios7'
p635
NsS'blackberry-permissions-record-audio'
p636
NsS'ws8-certificate-end-date'
p637
NsS'tizen-so'
p638
(lp639
sS'wp8-tile-fliptemplate-small-image'
p640
NsS'playbook-authorid'
p641
NsS'iphone-signing-identity'
p642
NsS'roku-persist-quota'
p643
NsS'nds-bannertitle-fr'
p644
NsS'ws8-distribution-pfx'
p645
NsS'ws8-publisher-display-name'
p646
NsS'brew-icon-small'
p647
NsS'psp-dlgpic2'
p648
NsS'psp-dlgpic0'
p649
NsS'psp-pic0'
p650
NsS'psp-pic1'
p651
NsS'win32-pref-windowtitle'
p652
NsS'psp-icon0'
p653
NsS'psp-icon1'
p654
NsS'ws81-identity-name'
p655
NsS'winmobile-icon'
p656
NsS'iphone-no-splash'
p657
NsS'iphone-splash'
p658
NsS'iphone-app-fonts'
p659
NsS'wp8-ext-native-dll'
p660
(lp661
sS'wp81-splash-screen-image480x800'
p662
NsS'ws81-distribution-cer'
p663
NsS'uiq3-icon2'
p664
NsS'uiq3-icon3'
p665
NsS'uiq3-icon1'
p666
NsS'uiq3-icon1-format'
p667
NsS'ws8-logo-image50x50'
p668
NsS'symbian-icon2-mask-black'
p669
NsS'symbian-run-on-install'
p670
NsS'wp81-description'
p671
NsS'ws81-publisher-display-name'
p672
NsS'firefoxos-xulrunner'
p673
NsS'symbian-soundrecordsupport'
p674
NsS'nds-bannertitle-sp'
p675
NsS'psp-producer'
p676
NsS'iphone-apple-wwdr-cert'
p677
NsS'android-icon-nonstandard'
p678
NsS'win32-pref-processtitle'
p679
NsS'nds-bannertitle-hn'
p680
NsS'tizen-dist2-key'
p681
NsS'brew-depends'
p682
NsS'ws81-custom-manifest'
p683
NsS'iphone-icon-ipad-search-ios7'
p684
NsS'brew-icon-medium'
p685
NsS'iphone-bundle-url-name'
p686
NsS'wp8-tile-fliptemplate-large-front-image'
p687
NsS'tizen-dist2-CA-root-path'
p688
NsS'ws81-description'
p689
NsS'uiq3-icon3-format'
p690
NsS'ws81-logo-image30x30'
p691
NsS'win8-phone-extra-res'
p692
(lp693
sS'iphone-signing-host'
p694
NsS'tizen-icon'
p695
NsS'osx-info-plist'
p696
NsS'symbian-icon1-format'
p697
NsS'win8-store-extra-res'
p698
(lp699
sS'blackberry-authorid'
p700
NsS'ws81-publisher-id'
p701
NsS'ws81-distribution-pfx'
p702
NsS'wp8-description'
p703
NsS'iphone-link-opts'
p704
(lp705
sS'ws81-ext-sdk-ref'
p706
(lp707
sS'roku-splash-min-time'
p708
NsS'wp8-tile-fliptemplate-medium-front-image'
p709
NsS'provider'
p710
NsS'playbook-keystore'
p711
NsS'tizen-appid'
p712
NsS'wp8-extra-res'
p713
(lp714
sS'symbian-osexecsupport'
p715
NsS'android-install-location'
p716
NsS'nds-privatesavedatasize'
p717
NsS'playbook-storepass'
p718
NsS'android-icon-ldpi'
p719
NsS'manufacturer'
p720
NsS'itunes-artwork'
p721
NsS'iphone-extra-sections'
p722
NsS'ws81-product-name'
p723
NsS'ws81-ext-native-dll'
p724
(lp725
sS'ws8-extra-pri'
p726
(lp727
sS'win32-icon'
p728
NsS'ws8-logo-image30x30'
p729
NsS'wp8-ext-managed-dll'
p730
(lp731
sS'iphone-splashscreen-landscape'
p732
NsS'symbian-maxheapsize'
p733
NsS'nds-makercode'
p734
NsS'priv-sign-key'
p735
NsS'networking'
p736
NsS'android-icon'
p737
NsS'iphone-icon-settings'
p738
NsS'wp81-phone-product-id'
p739
NsS'firefoxos-icon-60X60'
p740
NsS'iphone-distribution-cert'
p741
NsS'android_extra_strings'
p742
NsS'nds-bannertitle-en'
p743
NsS'wp8-tile-fliptemplate-title'
p744
NsS'android-so'
p745
(lp746
sS'wp8-higher-mem'
p747
NsS'wp8-ext-sdk-ref'
p748
(lp749
sS'roku-splash-screen-hd'
p750
NsS'iphone-bundle-url-schemes'
p751
NsS'roku-screensaver-private'
p752
NsS'osx-extra-res'
p753
(lp754
sS'ws81-extra-res'
p755
(lp756
sS'playbook-icon'
p757
NsS'uid'
p758
NsS'pkguid-as-uid'
p759
NsS'wp81-ext-native-dll'
p760
(lp761
sS'tizen-dist1-password'
p762
NsS'roku-screensaver-title'
p763
NsS'osx-minimum-osx-version'
p764
NsS'symbian-cert'
p765
NsS'iphone-icon'
p766
NsS'ws81-ext-capabilities'
p767
(lp768
sS'ws8-distribution-cer'
p769
NsS'playbook-access-shared'
p770
NsS'iphone-icon-ipad-high-res-ios7'
p771
NsS'iphone-link-libs'
p772
(lp773
sS'wp8-exclude-wvga'
p774
NsS'assets'
p775
NsS'wp8-tile-fliptemplate-large-back-image'
p776
NsS'wp8-custom-manifest-fill'
p777
NsS'pub-sign-key'
p778
NsS'android-extra-strings'
p779
NsS'tizen-author-CA-path'
p780
Nssg280
g327
sbssS'platform'
p781
S'WP8LOADER'
p782
sg53
S'1.0'
p783
sS'arcade_platform'
p784
g2
sS'extensions'
p785
(dp786
sS'source_groups_tree'
p787
(dp788
S'edk'
p789
(dp790
S'h'
p791
(dp792
S'c:/marmalade/7.4/s3e/edk/h/s3eEdkError.h'
p793
(lp794
I1
a(dp795
asS'c:/marmalade/7.4/s3e/edk/h/s3eEdk_android.h'
p796
(lp797
I1
ag795
asS'c:/marmalade/7.4/s3e/edk/h/s3eEdk.h'
p798
(lp799
I1
ag795
asS'c:/marmalade/7.4/s3e/edk/h/s3eEdk_osx.h'
p800
(lp801
I1
ag795
asS'c:/marmalade/7.4/s3e/edk/h/s3eEdk_windows.h'
p802
(lp803
I1
ag795
asS'c:/marmalade/7.4/s3e/edk/h/s3eEdk_iphone.h'
p804
(lp805
I1
ag795
assS'S3E API'
p806
(dp807
S'c:/marmalade/7.4/s3e/h/s3ePointer.h'
p808
(lp809
I1
ag795
asS'c:/marmalade/7.4/s3e/h/s3eLocation.h'
p810
(lp811
I1
ag795
asS'c:/marmalade/7.4/s3e/h/s3eThread.h'
p812
(lp813
I1
ag795
asS'c:/marmalade/7.4/s3e/h/s3eAccelerometer.h'
p814
(lp815
I1
ag795
asS'c:/marmalade/7.4/s3e/h/s3eDevice.h'
p816
(lp817
I1
ag795
asS'c:/marmalade/7.4/s3e/h/s3eSocket.h'
p818
(lp819
I1
ag795
asS'c:/marmalade/7.4/s3e/h/s3eLicense.h'
p820
(lp821
I1
ag795
asS'c:/marmalade/7.4/s3e/h/s3eSound.h'
p822
(lp823
I1
ag795
asS'c:/marmalade/7.4/s3e/h/s3e.h'
p824
(lp825
I1
ag795
asS'c:/marmalade/7.4/s3e/h/s3eCamera.h'
p826
(lp827
I1
ag795
asS'c:/marmalade/7.4/s3e/h/s3eContacts.h'
p828
(lp829
I1
ag795
asS'c:/marmalade/7.4/s3e/h/MarmaladeVersion.h'
p830
(lp831
I1
ag795
asS'c:/marmalade/7.4/s3e/h/s3eDebug.h'
p832
(lp833
I1
ag795
asS'c:/marmalade/7.4/s3e/h/s3eCrypto.h'
p834
(lp835
I1
ag795
asS'c:/marmalade/7.4/s3e/h/s3eKeyboard.h'
p836
(lp837
I1
ag795
asS'c:/marmalade/7.4/s3e/h/s3eGL.h'
p838
(lp839
I1
ag795
asS'c:/marmalade/7.4/s3e/h/s3eConfig.h'
p840
(lp841
I1
ag795
asS'c:/marmalade/7.4/s3e/h/s3eAudio.h'
p842
(lp843
I1
ag795
asS'c:/marmalade/7.4/s3e/h/s3eMemory.h'
p844
(lp845
I1
ag795
asS'c:/marmalade/7.4/s3e/h/s3eHash.h'
p846
(lp847
I1
ag795
asS'c:/marmalade/7.4/s3e/h/s3eCompression.h'
p848
(lp849
I1
ag795
asS'c:/marmalade/7.4/s3e/h/s3eVideo.h'
p850
(lp851
I1
ag795
asS'c:/marmalade/7.4/s3e/h/s3eTypes.h'
p852
(lp853
I1
ag795
asS'c:/marmalade/7.4/s3e/h/s3eExt.h'
p854
(lp855
I1
ag795
asS'c:/marmalade/7.4/s3e/h/s3eVibra.h'
p856
(lp857
I1
ag795
asS'c:/marmalade/7.4/s3e/h/s3eSoundRecord.h'
p858
(lp859
I1
ag795
asS'c:/marmalade/7.4/s3e/h/s3eCompass.h'
p860
(lp861
I1
ag795
asS'c:/marmalade/7.4/s3e/h/s3eFile.h'
p862
(lp863
I1
ag795
asS'c:/marmalade/7.4/s3e/h/s3eClipboard.h'
p864
(lp865
I1
ag795
asS'c:/marmalade/7.4/s3e/h/s3eTimer.h'
p866
(lp867
I1
ag795
asS'c:/marmalade/7.4/s3e/h/s3eSecureStorage.h'
p868
(lp869
I1
ag795
asS'c:/marmalade/7.4/s3e/h/AirplayVersion.h'
p870
(lp871
I1
ag795
asS'c:/marmalade/7.4/s3e/h/s3eVersion.h'
p872
(lp873
I1
ag795
asS'c:/marmalade/7.4/s3e/h/s3eSurface.h'
p874
(lp875
I1
ag795
assS'c:/marmalade/7.4/s3e/edk/edk.mkf'
p876
(lp877
I1
a(dp878
assS'Extensions'
p879
(dp880
S'GameThrive'
p881
(dp882
S'c:/users/kasten/documents/gamethrive/sdk/marmalade/s3egamethrive/s3egamethrive_build.mkf'
p883
(lp884
I1
a(dp885
asS'docs'
p886
(dp887
S'c:/users/kasten/documents/gamethrive/sdk/marmalade/s3egamethrive/interface/s3eGameThrive.defines.txt'
p888
(lp889
I1
a(dp890
assS'source'
p891
(dp892
S'c:/users/kasten/documents/gamethrive/sdk/marmalade/s3egamethrive/source/generic/s3eGameThrive_register.cpp'
p893
(lp894
I1
ag890
asS'c:/users/kasten/documents/gamethrive/sdk/marmalade/s3egamethrive/source/wp8/s3eGameThrive_platform.cpp'
p895
(lp896
I1
ag890
asS'c:/users/kasten/documents/gamethrive/sdk/marmalade/s3egamethrive/source/wp8/s3eGameThrive_shim.cpp'
p897
(lp898
I1
ag890
asS'c:/users/kasten/documents/gamethrive/sdk/marmalade/s3egamethrive/source/generic/s3eGameThrive.cpp'
p899
(lp900
I1
ag890
assg791
(dp901
S'c:/users/kasten/documents/gamethrive/sdk/marmalade/s3egamethrive/source/h/s3eGameThrive_autodefs.h'
p902
(lp903
I1
ag890
asS'c:/users/kasten/documents/gamethrive/sdk/marmalade/s3egamethrive/source/h/s3eGameThrive_internal.h'
p904
(lp905
I1
ag890
asS'c:/users/kasten/documents/gamethrive/sdk/marmalade/s3egamethrive/source/wp8/s3eGameThrive_shim.h'
p906
(lp907
I1
ag890
assS'c:/marmalade/7.4/s3e/edk/builder/edk_build.py'
p908
(lp909
I1
a(lp910
asS'c:/users/kasten/documents/gamethrive/sdk/marmalade/s3egamethrive/s3eGameThrive.s4e'
p911
(lp912
I1
ag890
asssS'(s3eGameThrive_wp8_cs)'
p913
(dp914
S'c:/users/kasten/documents/gamethrive/sdk/marmalade/s3egamethrive/source/wp8/AssemblyInfo.cs'
p915
(lp916
I1
a(dp917
asS'c:/users/kasten/documents/gamethrive/sdk/marmalade/s3egamethrive/s3egamethrive_wp8_cs.mkf'
p918
(lp919
I1
a(dp920
asS'c:/users/kasten/documents/gamethrive/sdk/marmalade/s3egamethrive/source/wp8/s3eGameThrive.cs'
p921
(lp922
I1
ag917
asssS'files'
p923
(dp924
S's3eDevice.h'
p925
g260
(cmkb_main
File
p926
g262
Ntp927
Rp928
(dp929
S'flags'
p930
g795
sS'group'
p931
(lp932
g789
ag806
asg280
g816
sbsS's3eThread.h'
p933
g260
(g926
g262
Ntp934
Rp935
(dp936
g930
g795
sg931
g932
sg280
g812
sbsS's3eCompass.h'
p937
g260
(g926
g262
Ntp938
Rp939
(dp940
g930
g795
sg931
g932
sg280
g860
sbsS's3eCompression.h'
p941
g260
(g926
g262
Ntp942
Rp943
(dp944
g930
g795
sg931
g932
sg280
g848
sbsS's3eEdk_iphone.h'
p945
g260
(g926
g262
Ntp946
Rp947
(dp948
g930
g795
sg931
(lp949
g789
ag791
asg280
g804
sbsS'AirplayVersion.h'
p950
g260
(g926
g262
Ntp951
Rp952
(dp953
g930
g795
sg931
g932
sg280
g870
sbsS's3eTimer.h'
p954
g260
(g926
g262
Ntp955
Rp956
(dp957
g930
g795
sg931
g932
sg280
g866
sbsS'AssemblyInfo.cs'
p958
g260
(g926
g262
Ntp959
Rp960
(dp961
g930
g917
sg931
(lp962
g913
asg280
g915
sbsS's3e.h'
p963
g260
(g926
g262
Ntp964
Rp965
(dp966
g930
g795
sg931
g932
sg280
g824
sbsS's3eSoundRecord.h'
p967
g260
(g926
g262
Ntp968
Rp969
(dp970
g930
g795
sg931
g932
sg280
g858
sbsS's3eConfig.h'
p971
g260
(g926
g262
Ntp972
Rp973
(dp974
g930
g795
sg931
g932
sg280
g840
sbsS's3eVibra.h'
p975
g260
(g926
g262
Ntp976
Rp977
(dp978
g930
g795
sg931
g932
sg280
g856
sbsS's3eEdk_android.h'
p979
g260
(g926
g262
Ntp980
Rp981
(dp982
g930
g795
sg931
g949
sg280
g796
sbsS's3eVersion.h'
p983
g260
(g926
g262
Ntp984
Rp985
(dp986
g930
g795
sg931
g932
sg280
g872
sbsS'temp_defines_debug.h'
p987
g260
(g926
g262
Ntp988
Rp989
(dp990
g930
(lp991
sg931
(lp992
S"'generated files'"
p993
asg280
S'c:/Users/Kasten/Documents/GameThrive/SDK/Marmalade/s3eGameThrive/build_s3egamethrive_wp8_wp8loader_vc12_wp8toolset/temp_defines_debug.h'
p994
sbsS'MarmaladeVersion.h'
p995
g260
(g926
g262
Ntp996
Rp997
(dp998
g930
g795
sg931
g932
sg280
g830
sbsS's3eSound.h'
p999
g260
(g926
g262
Ntp1000
Rp1001
(dp1002
g930
g795
sg931
g932
sg280
g822
sbsS's3eAudio.h'
p1003
g260
(g926
g262
Ntp1004
Rp1005
(dp1006
g930
g795
sg931
g932
sg280
g842
sbsS's3eExt.h'
p1007
g260
(g926
g262
Ntp1008
Rp1009
(dp1010
g930
g795
sg931
g932
sg280
g854
sbsS's3ePointer.h'
p1011
g260
(g926
g262
Ntp1012
Rp1013
(dp1014
g930
g795
sg931
g932
sg280
g808
sbsS's3eCamera.h'
p1015
g260
(g926
g262
Ntp1016
Rp1017
(dp1018
g930
g795
sg931
g932
sg280
g826
sbsS's3eTypes.h'
p1019
g260
(g926
g262
Ntp1020
Rp1021
(dp1022
g930
g795
sg931
g932
sg280
g852
sbsS's3eContacts.h'
p1023
g260
(g926
g262
Ntp1024
Rp1025
(dp1026
g930
g795
sg931
g932
sg280
g828
sbsS's3eEdk.h'
p1027
g260
(g926
g262
Ntp1028
Rp1029
(dp1030
g930
g795
sg931
g949
sg280
g798
sbsS's3eSurface.h'
p1031
g260
(g926
g262
Ntp1032
Rp1033
(dp1034
g930
g795
sg931
g932
sg280
g874
sbsS'temp_defines_release.h'
p1035
g260
(g926
g262
Ntp1036
Rp1037
(dp1038
g930
(lp1039
sg931
(lp1040
g993
asg280
S'c:/Users/Kasten/Documents/GameThrive/SDK/Marmalade/s3eGameThrive/build_s3egamethrive_wp8_wp8loader_vc12_wp8toolset/temp_defines_release.h'
p1041
sbsS's3eAccelerometer.h'
p1042
g260
(g926
g262
Ntp1043
Rp1044
(dp1045
g930
g795
sg931
g932
sg280
g814
sbsS's3eMemory.h'
p1046
g260
(g926
g262
Ntp1047
Rp1048
(dp1049
g930
g795
sg931
g932
sg280
g844
sbsS's3eEdk_osx.h'
p1050
g260
(g926
g262
Ntp1051
Rp1052
(dp1053
g930
g795
sg931
g949
sg280
g800
sbsS's3egamethrive_wp8_cs.mkf'
p1054
g260
(g926
g262
Ntp1055
Rp1056
(dp1057
g930
g920
sg931
g962
sg280
g918
sbsS's3eCrypto.h'
p1058
g260
(g926
g262
Ntp1059
Rp1060
(dp1061
g930
g795
sg931
g932
sg280
g834
sbsS's3eKeyboard.h'
p1062
g260
(g926
g262
Ntp1063
Rp1064
(dp1065
g930
g795
sg931
g932
sg280
g836
sbsS's3eEdkError.h'
p1066
g260
(g926
g262
Ntp1067
Rp1068
(dp1069
g930
g795
sg931
g949
sg280
g793
sbsS's3eFile.h'
p1070
g260
(g926
g262
Ntp1071
Rp1072
(dp1073
g930
g795
sg931
g932
sg280
g862
sbsS's3eGameThrive.s4e'
p1074
g260
(g926
g262
Ntp1075
Rp1076
(dp1077
g930
g890
sg931
(lp1078
g879
ag881
asg280
g911
sbsS's3eGameThrive.cs'
p1079
g260
(g926
g262
Ntp1080
Rp1081
(dp1082
g930
g917
sg931
g962
sg280
g921
sbsS's3eSecureStorage.h'
p1083
g260
(g926
g262
Ntp1084
Rp1085
(dp1086
g930
g795
sg931
g932
sg280
g868
sbsS's3egamethrive_build.mkf'
p1087
g260
(g926
g262
Ntp1088
Rp1089
(dp1090
g930
g885
sg931
(lp1091
g879
ag881
asg280
g883
sbsS's3eGameThrive.defines.txt'
p1092
g260
(g926
g262
Ntp1093
Rp1094
(dp1095
g930
g890
sg931
(lp1096
g879
ag881
ag886
asg280
g888
sbsS's3eLocation.h'
p1097
g260
(g926
g262
Ntp1098
Rp1099
(dp1100
g930
g795
sg931
g932
sg280
g810
sbsS'edk_build.py'
p1101
g260
(g926
g262
Ntp1102
Rp1103
(dp1104
g930
g910
sg931
g1091
sg280
g908
sbsS's3eSocket.h'
p1105
g260
(g926
g262
Ntp1106
Rp1107
(dp1108
g930
g795
sg931
g932
sg280
g818
sbsS's3eGameThrive_register.cpp'
p1109
g260
(g926
g262
Ntp1110
Rp1111
(dp1112
g930
g890
sg931
(lp1113
g879
ag881
ag891
asg280
g893
sbsS's3eGameThrive_platform.cpp'
p1114
g260
(g926
g262
Ntp1115
Rp1116
(dp1117
g930
g890
sg931
g1113
sg280
g895
sbsS's3eGameThrive_shim.cpp'
p1118
g260
(g926
g262
Ntp1119
Rp1120
(dp1121
g930
g890
sg931
g1113
sg280
g897
sbsS's3eHash.h'
p1122
g260
(g926
g262
Ntp1123
Rp1124
(dp1125
g930
g795
sg931
g932
sg280
g846
sbsS's3eClipboard.h'
p1126
g260
(g926
g262
Ntp1127
Rp1128
(dp1129
g930
g795
sg931
g932
sg280
g864
sbsS's3eGL.h'
p1130
g260
(g926
g262
Ntp1131
Rp1132
(dp1133
g930
g795
sg931
g932
sg280
g838
sbsS's3eEdk_windows.h'
p1134
g260
(g926
g262
Ntp1135
Rp1136
(dp1137
g930
g795
sg931
g949
sg280
g802
sbsS's3eDebug.h'
p1138
g260
(g926
g262
Ntp1139
Rp1140
(dp1141
g930
g795
sg931
g932
sg280
g832
sbsS's3eGameThrive.cpp'
p1142
g260
(g926
g262
Ntp1143
Rp1144
(dp1145
g930
g890
sg931
g1113
sg280
g899
sbsS's3eLicense.h'
p1146
g260
(g926
g262
Ntp1147
Rp1148
(dp1149
g930
g795
sg931
g932
sg280
g820
sbsS's3eGameThrive_autodefs.h'
p1150
g260
(g926
g262
Ntp1151
Rp1152
(dp1153
g930
g890
sg931
(lp1154
g879
ag881
ag791
asg280
g902
sbsS's3eVideo.h'
p1155
g260
(g926
g262
Ntp1156
Rp1157
(dp1158
g930
g795
sg931
g932
sg280
g850
sbsS's3eGameThrive_internal.h'
p1159
g260
(g926
g262
Ntp1160
Rp1161
(dp1162
g930
g890
sg931
g1154
sg280
g904
sbsS'edk.mkf'
p1163
g260
(g926
g262
Ntp1164
Rp1165
(dp1166
g930
g878
sg931
(lp1167
g789
asg280
g876
sbsS's3eGameThrive_shim.h'
p1168
g260
(g926
g262
Ntp1169
Rp1170
(dp1171
g930
g890
sg931
(lp1172
g879
ag881
ag791
asg280
g906
sbssS'juice_build_type'
p1173
g2
sS'tests'
p1174
(lp1175
sS'project_name'
p1176
S's3eGameThrive_wp8'
p1177
sS'root_file'
p1178
g100
sS'current_root'
p1179
S'c:/Users/Kasten/Documents/GameThrive/SDK/Marmalade/s3eGameThrive'
p1180
sS'dependencies'
p1181
(lp1182
sS'include_paths'
p1183
(lp1184
S'c:/users/kasten/documents/gamethrive/sdk/marmalade/s3egamethrive/source/h'
p1185
aS'c:/users/kasten/documents/gamethrive/sdk/marmalade/s3egamethrive/h'
p1186
aS'c:/marmalade/7.4/s3e/edk/h'
p1187
aS'c:/marmalade/7.4/s3e/h'
p1188
aS'c:/marmalade/7.4/s3e/h/ext'
p1189
aS'c:/marmalade/7.4/modules/iwutil/h'
p1190
aS'c:/marmalade/7.4/modules/iwcore/h'
p1191
aS'c:/users/kasten/documents/gamethrive/sdk/marmalade/s3egamethrive/incoming/wp8'
p1192
asS'weak_frameworks'
p1193
(lp1194
sS'extprojects'
p1195
(dp1196
sg333
(dp1197
g327
(lp1198
ssS'macro_types'
p1199
(dp1200
g299
I0
sg300
I0
sg301
I0
sg302
I0
sg303
I0
sg305
I0
sg306
I01
sg307
I0
sg308
I1
sg309
I0
sg310
I0
sg311
I0
sg312
I0
sg314
I0
sg315
I0
sg316
I0
sg317
I1
ssS'commands'
p1201
(lp1202
sg335
(g782
S'VC12_WP8TOOLSET'
p1203
S'X86ARM'
p1204
tp1205
sS'build_libs'
p1206
(dp1207
sg337
g0
sS'frameworks'
p1208
(lp1209
sS'environ'
p1210
(dp1211
S'EDK_BUILDER'
p1212
S'c:\\marmalade\\7.4/s3e/edk/builder'
p1213
ssS'target_name_debug'
p1214
g268
sS'builders'
p1215
(dp1216
g327
(dp1217
S'.S'
p1218
(dp1219
S'rvct'
p1220
(lp1221
S'.obj'
p1222
aS'echo ARM Assembling(RVCT) ${SOURCE}...'
p1223
aS'c:/marmalade/7.4/s3e\\rvct\\bin\\armasm -o ${TARGET} ${SOURCE}'
p1224
asS'gcc'
p1225
(lp1226
g1222
aS'echo ARM Assembling(GCC) ${SOURCE}...'
p1227
aS'c:/marmalade/7.4/s3e\\gcc\\bin\\arm-none-eabi-gcc -c -o ${TARGET} ${SOURCE}'
p1228
asS'ppu'
p1229
(lp1230
S'.a'
p1231
aS'echo PPU Assembling(SNC) ${SOURCE}...'
p1232
aS'c:/marmalade/7.4/s3e\\rvct\\bin\\armasm -o ${TARGET} ${SOURCE}'
p1233
assS'.s'
p1234
g1219
sssS'extproject_names'
p1235
(lp1236
sbtp1237
.