((dp0
S'arm_dbg_args'
p1
S'-via:"c:\\Users\\Kasten\\Documents\\GameThrive\\SDK\\Marmalade\\GameThriveExample\\build_gamethriveexample_vc12\\GameThriveExample_vc12_arm_debug.via" -qemu'
p2
sS'game-icf'
p3
S''
p4
sS'dist'
p5
NsS'csproj'
p6
g4
sS'module_path_append'
p7
NsS'global_path'
p8
S'c:\\users\\kasten\\documents\\gamethrive\\sdk\\marmalade'
p9
sS'system_path'
p10
S'c:\\marmalade\\7.4\\s3e\\makefile_builder'
p11
sS'android_x86_dbg_args'
p12
S'../../tools/DeployTool/DeployTool.exe --dir "c:\\Users\\Kasten\\Documents\\GameThrive\\SDK\\Marmalade\\GameThriveExample\\build_gamethriveexample_vc12"'
p13
sS'no-emit'
p14
NsS'arm-float-abi'
p15
g4
sS'arm_rel_rtsm_args'
p16
S'-via:"c:\\Users\\Kasten\\Documents\\GameThrive\\SDK\\Marmalade\\GameThriveExample\\build_gamethriveexample_vc12\\GameThriveExample_vc12_arm_release.via" -qemu'
p17
sS'amd64'
p18
NsS'line-width'
p19
I80
sS'gcc_dbg_args'
p20
S'-via:"c:\\Users\\Kasten\\Documents\\GameThrive\\SDK\\Marmalade\\GameThriveExample\\build_gamethriveexample_vc12\\GameThriveExample_vc12_gcc_debug.via" -qemu'
p21
sS'android-x86'
p22
NsS'x86_dbg_exe'
p23
S'c:/marmalade/7.4/s3e\\win32\\s3e_simulator_debug.exe'
p24
sS'disable-runtime-checks'
p25
NsS'release'
p26
I01
sS'no-make'
p27
NsS'xcode-x86-build-settings'
p28
g4
sS'optimise-size'
p29
NsS'output-name-debug'
p30
g4
sS'arm-fpu'
p31
g4
sS'proj_name'
p32
S'GameThriveExample_vc12'
p33
sS'rvct-version'
p34
S'none'
p35
sS'compiler'
p36
S'gcc'
p37
sS'execute'
p38
NsS'compile-static'
p39
NsS'msvc-project'
p40
NsS'buildenv'
p41
S'VC12'
p42
sS'quick'
p43
NsS'module_path'
p44
NsS'use-release-std-libs'
p45
NsS'using_perforce'
p46
I00
sS'tizen-x86'
p47
NsS'mips-s3e'
p48
NsS's3e-api-lib-name'
p49
g4
sS'ios-no-pic'
p50
NsS'shared-arm-lib'
p51
NsS'arm-cpu'
p52
g4
sS'compile-thumb'
p53
NsS'no-ide'
p54
I01
sS'msvc-version'
p55
S'6.0'
p56
sS'arm'
p57
I01
sS'builddir'
p58
g4
sS'compile-debug-as-release'
p59
I0
sS'arm-arch'
p60
g4
sS'brief'
p61
NsS'dll'
p62
NsS'buildenv-toolset'
p63
g4
sS'version'
p64
NsS'ccache'
p65
I0
sS'offline'
p66
NsS'ios-version'
p67
g4
sS'hub_data'
p68
g4
sS'fake_vc_call'
p69
NsS'jobs'
p70
I0
sS'linkflags'
p71
NsS'debug'
p72
NsS'xcode-build-order'
p73
g4
sS'gcc_rel_rtsm_args'
p74
S'-via:"c:\\Users\\Kasten\\Documents\\GameThrive\\SDK\\Marmalade\\GameThriveExample\\build_gamethriveexample_vc12\\GameThriveExample_vc12_gcc_release.via" -qemu'
p75
sS'done_defaults'
p76
I1
sS'path'
p77
NsS's3e-data-dir'
p78
S'c:/Users/Kasten/Documents/GameThrive/SDK/Marmalade/GameThriveExample\\data'
p79
sS'enable-exceptions'
p80
NsS'osx-dll'
p81
NsS'extension'
p82
g4
sS'no-vc6'
p83
NsS'non-interactive'
p84
NsS'win32-console'
p85
NsS'dist-format'
p86
g4
sS's3e-force-arch'
p87
NsS'dump_defines'
p88
NsS'use_prebuilt'
p89
NsS'gcc-version'
p90
g4
sS'x86_dbg_args'
p91
S'-via:"c:\\Users\\Kasten\\Documents\\GameThrive\\SDK\\Marmalade\\GameThriveExample\\build_gamethriveexample_vc12\\GameThriveExample_vc12_debug.via"'
p92
sS'tizen_x86_dbg_args'
p93
g13
sS'arm-debugger'
p94
g4
sS'use_temp_extension'
p95
NsS'verbose'
p96
I0
sS'log'
p97
NsS'no-strip'
p98
NsS'rebuild'
p99
NsS'win32-simulator-dll'
p100
NsS'strict'
p101
NsS'mips_dbg_args'
p102
g13
sS'enable-global-path'
p103
NsS'cflags'
p104
NsS'dist-dir'
p105
g4
sS'xcode-arm-build-settings'
p106
g4
sS'jflags'
p107
NsS'csprojSDKRefs'
p108
g4
sS'tizen_x86_rel_exe'
p109
S'c:\\marmalade\\7.4\\s3e\\makefile_builder\\tool_launcher.exe'
p110
sS'test-assets'
p111
g4
sS'distcc'
p112
NsS'external-compiler'
p113
NsS'no-distcc'
p114
NsS'preinclude'
p115
NsS'using_sdk'
p116
I01
sS'nologo'
p117
NsS'warn-level'
p118
I2
sS'mips_dbg_exe'
p119
g110
sS'mkb_in'
p120
S'c:/Users/Kasten/Documents/GameThrive/SDK/Marmalade/GameThriveExample/GameThriveExample.mkb'
p121
sS'tizen_x86_dbg_exe'
p122
g110
sS'arm_dbg_exe'
p123
S'c:/marmalade/7.4/s3e\\bin\\armdebug.exe'
p124
sS'csprojDLLRef'
p125
NsS'tizen_x86_rel_args'
p126
g13
sS'android_x86_dbg_exe'
p127
g110
sS'test-config'
p128
g4
sS'list-targets'
p129
NsS'arm_rel_exe'
p130
g110
sS'arm_rel_args'
p131
g13
sS'makedeps'
p132
NsS'android_x86_rel_exe'
p133
g110
sS'default-buildenv'
p134
S'VC12'
p135
sS'x86_rel_exe'
p136
g24
sS'preprocess-java'
p137
NsS'mips_rel_args'
p138
g13
sS'defines'
p139
NsS'lib'
p140
NsS'global_argv'
p141
(lp142
S'C:\\Marmalade\\7.4\\s3e\\makefile_builder\\mkb.py'
p143
aS'C:/Users/Kasten/Documents/GameThrive/SDK/Marmalade/GameThriveExample/GameThriveExample.mkb'
p144
aS'--buildenv=VC12'
p145
aS'--release'
p146
aS'--arm'
p147
aS'--compiler=gcc'
p148
aS'--no-ide'
p149
aS'--make'
p150
asS'make'
p151
I01
sS'optimise-speed'
p152
NsS'internal'
p153
NsS'enable-stdinc'
p154
NsS'deploy-only'
p155
NsS'x86'
p156
NsS'deploy'
p157
g4
sS'x86_run_exe'
p158
S'c:/marmalade/7.4/s3e\\win32\\s3e_console.exe'
p159
sS'x86_rel_args'
p160
S'-via:"c:\\Users\\Kasten\\Documents\\GameThrive\\SDK\\Marmalade\\GameThriveExample\\build_gamethriveexample_vc12\\GameThriveExample_vc12_release.via"'
p161
sS'gcc_rel_args'
p162
g13
sS'mips'
p163
NsS'xcode-build-settings'
p164
g4
sS'incredibuild'
p165
NsS'strict-compile'
p166
NsS'use-auto-subdirs'
p167
NsS'mips_rel_exe'
p168
g110
sS'android_x86_rel_args'
p169
g13
sS'app-icf'
p170
g4
sS'deployargs'
p171
NsS'iosnativedebug'
p172
NsS'mkf_in'
p173
(lp174
S'c:\\users\\kasten\\documents\\gamethrive\\sdk\\marmalade\\s3egamethrive\\s3egamethrive.mkf'
p175
aS'c:\\marmalade\\7.4\\modules\\iwutil\\iwutil.mkf'
p176
aS'c:\\marmalade\\7.4\\modules\\third_party\\libjpeg\\libjpeg.mkf'
p177
aS'c:\\marmalade\\7.4\\modules\\third_party\\libpng\\libpng.mkf'
p178
aS'c:\\marmalade\\7.4\\modules\\third_party\\zlib\\zlib.mkf'
p179
asS'strict-mkb'
p180
NsS'executeargs'
p181
NsS'clean'
p182
NsS'no-asm'
p183
NsS'output-name'
p184
g4
sS'no-modules'
p185
NsS'find_define'
p186
g4
s(dp187
S'c:\\marmalade\\7.4\\s3e\\makefile_builder\\plugins\\Emitter.pyc'
p188
F1409106506.0
sS'c:\\marmalade\\7.4\\s3e\\makefile_builder\\templates\\ws8_ext_sln.pyc'
p189
F1409106508.0
sS'c:\\marmalade\\7.4\\s3e\\makefile_builder\\templates\\MainWindow.xib'
p190
F1409103204.0
sS'c:\\marmalade\\7.4\\s3e\\makefile_builder\\templates\\template.suo'
p191
F1409103204.0
sS'c:\\marmalade\\7.4\\s3e\\makefile_builder\\plugins\\xcode4_schememanagement.py'
p192
F1409103204.0
sS'c:\\marmalade\\7.4\\s3e\\makefile_builder\\templates\\ws81_sln.pyc'
p193
F1409106508.0
sS'c:\\marmalade\\7.4\\s3e\\makefile_builder\\templates\\win8_ext_csproj.pyc'
p194
F1409106508.0
sS'c:\\marmalade\\7.4\\s3e\\makefile_builder\\mkb_option.pyc'
p195
F1409106506.0
sS'c:\\marmalade\\7.4\\s3e\\makefile_builder\\plugins\\s3e_xcode.py'
p196
F1409103204.0
sS'c:\\marmalade\\7.4\\s3e\\makefile_builder\\plugins\\s3e_scons.pyc'
p197
F1409106506.0
sS'c:\\marmalade\\7.4\\s3e\\makefile_builder\\templates\\win8_vcxproj.pyc'
p198
F1409106508.0
sS'c:\\marmalade\\7.4\\s3e\\makefile_builder\\plugins\\null.pyc'
p199
F1409106506.0
sS'c:\\marmalade\\7.4\\s3e\\makefile_builder\\templates\\vc8_user.pyc'
p200
F1409106506.0
sS'c:\\marmalade\\7.4\\s3e\\makefile_builder\\templates\\wp81_ext_sln.pyc'
p201
F1409106508.0
sS'c:\\marmalade\\7.4\\s3e\\makefile_builder\\templates\\scons.pyc'
p202
F1409106506.0
sS'c:\\marmalade\\7.4\\s3e\\makefile_builder\\templates\\wp8_ext_csproj.pyc'
p203
F1409106508.0
sS'c:\\marmalade\\7.4\\s3e\\makefile_builder\\templates\\xcode_pbxuser.py'
p204
F1409103204.0
sS'c:\\marmalade\\7.4\\s3e\\makefile_builder\\plugins\\s3e_qmake.py'
p205
F1409103204.0
sS'c:\\marmalade\\7.4\\s3e\\makefile_builder\\plugins\\iphone.pyc'
p206
F1409106506.0
sS'c:\\marmalade\\7.4\\s3e\\makefile_builder\\templates\\ws81_ext_csproj.pyc'
p207
F1409106508.0
sS'c:\\marmalade\\7.4\\s3e\\makefile_builder\\templates\\vc6_opt.pyc'
p208
F1409106506.0
sS'c:\\marmalade\\7.4\\s3e\\makefile_builder\\plugins\\s3e_win8.pyc'
p209
F1409106506.0
sS'c:\\marmalade\\7.4\\s3e\\makefile_builder\\mkb_main.pyc'
p210
F1409106506.0
sS'c:\\marmalade\\7.4\\s3e\\makefile_builder\\templates\\wp8_csproj.pyc'
p211
F1409106508.0
sS'c:\\marmalade\\7.4\\s3e\\makefile_builder\\templates\\win32_vcproj.pyc'
p212
F1409106506.0
sS'c:\\marmalade\\7.4\\s3e\\makefile_builder\\templates\\win8_sln.pyc'
p213
F1409106508.0
sS'c:\\marmalade\\7.4\\s3e\\makefile_builder\\mkb_launcher.exe'
p214
F1409103760.0
sS'c:\\marmalade\\7.4\\s3e\\makefile_builder\\plugins\\osx_xcode.pyc'
p215
F1409106506.0
sS'c:\\marmalade\\7.4\\s3e\\makefile_builder\\plugins'
p216
F1411100331.0521703
sS'c:\\marmalade\\7.4\\s3e\\makefile_builder\\templates\\wp8_csproj_user.pyc'
p217
F1409106508.0
sS'c:\\marmalade\\7.4\\s3e\\makefile_builder\\plugins\\win32_vc6.pyc'
p218
F1409106506.0
sS'c:\\marmalade\\7.4\\s3e\\makefile_builder\\plugins\\s3e_vc6.pyc'
p219
F1409106506.0
sS'c:\\marmalade\\7.4\\s3e\\makefile_builder\\templates\\vc10_user.pyc'
p220
F1409106506.0
sS'c:\\marmalade\\7.4\\s3e\\makefile_builder\\docs\\deprecated.defines.txt'
p221
F1409103204.0
sS'c:\\marmalade\\7.4\\s3e\\makefile_builder\\templates\\wp81_csproj_user.pyc'
p222
F1409106508.0
sS'c:\\marmalade\\7.4\\s3e\\makefile_builder\\templates\\ws81_ext_sln.pyc'
p223
F1409106508.0
sS'c:\\marmalade\\7.4\\s3e\\makefile_builder\\templates\\make.py'
p224
F1409103204.0
sS'c:\\marmalade\\7.4\\s3e\\makefile_builder\\plugins\\wp81_wp81.pyc'
p225
F1409106506.0
sS'c:\\marmalade\\7.4\\s3e\\makefile_builder\\plugins\\s3e_qmake.pyc'
p226
F1411100331.005139
sS'c:\\marmalade\\7.4\\s3e\\makefile_builder\\templates\\mips_linker_script'
p227
F1409103204.0
sS'c:\\marmalade\\7.4\\s3e\\makefile_builder\\plugins\\deploy.pyc'
p228
F1409106506.0
sS'c:\\marmalade\\7.4\\s3e\\makefile_builder\\plugins\\ws81_ws81.pyc'
p229
F1409106506.0
sS'c:\\marmalade\\7.4\\s3e\\makefile_builder\\mkb.py'
p230
F1409103204.0
sS'c:\\marmalade\\7.4\\s3e\\makefile_builder\\docs\\options.txt'
p231
F1409103204.0
sS'c:\\marmalade\\7.4\\s3e\\makefile_builder\\mkb_parser.pyc'
p232
F1409106506.0
sS'c:\\marmalade\\7.4\\s3e\\makefile_builder\\templates\\qmake_user.py'
p233
F1409103204.0
sS'c:\\marmalade\\7.4\\s3e\\makefile_builder\\docs\\mkb.defines.txt'
p234
F1409103204.0
sS'c:\\marmalade\\7.4\\s3e\\makefile_builder\\deployment.pyc'
p235
F1409106506.0
sS'c:\\marmalade\\7.4\\s3e\\makefile_builder\\plugins\\wp8_wp8.pyc'
p236
F1409106506.0
sS'c:\\marmalade\\7.4\\s3e\\makefile_builder\\plugins\\linux_scons.pyc'
p237
F1409106506.0
sS'c:\\marmalade\\7.4\\s3e\\makefile_builder\\plugins\\s3e_web.pyc'
p238
F1409106506.0
sS'c:\\marmalade\\7.4\\s3e\\makefile_builder\\plugins\\S3EEmitter.pyc'
p239
F1409106506.0
sS'c:\\marmalade\\7.4\\s3e\\makefile_builder\\plugins\\Win8Emitter.pyc'
p240
F1409106506.0
sS'c:\\marmalade\\7.4\\s3e\\makefile_builder\\templates\\xcode4_arm.xcscheme'
p241
F1409103204.0
sS'c:\\marmalade\\7.4\\s3e\\makefile_builder\\plugins\\vc6_utils.pyc'
p242
F1409106506.0
sS'c:\\marmalade\\7.4\\s3e\\makefile_builder\\templates\\wp8_vcxproj.pyc'
p243
F1409106508.0
sS'c:\\marmalade\\7.4\\s3e\\makefile_builder\\templates\\xcode4.xcscheme'
p244
F1409103204.0
sS'c:\\marmalade\\7.4\\s3e\\makefile_builder\\plugins\\MakeEmitter.pyc'
p245
F1409106506.0
sS'c:\\marmalade\\7.4\\s3e\\makefile_builder\\plugins\\java.pyc'
p246
F1409106506.0
sS'c:\\marmalade\\7.4\\s3e\\makefile_builder\\plugins\\XcodeEmitter.pyc'
p247
F1411100330.886406
sS'c:\\marmalade\\7.4\\s3e\\makefile_builder\\plugins\\XcodeEmitter.py'
p248
F1409103204.0
sS'c:\\marmalade\\7.4\\s3e\\makefile_builder\\mkb_globals.pyc'
p249
F1409106506.0
sS'c:\\marmalade\\7.4\\s3e\\makefile_builder\\tool_launcher.exe'
p250
F1409103760.0
sS'c:\\marmalade\\7.4\\s3e\\makefile_builder\\mkb_util.pyc'
p251
F1409106506.0
sS'c:\\marmalade\\7.4\\s3e\\makefile_builder\\plugins\\xcode4_schememanagement.pyc'
p252
F1411100330.8954127
sS'c:\\marmalade\\7.4\\s3e\\makefile_builder\\templates\\ws8_sln.pyc'
p253
F1409106508.0
sS'c:\\marmalade\\7.4\\s3e\\makefile_builder\\templates\\win32_sln.pyc'
p254
F1409106506.0
sS'c:\\marmalade\\7.4\\s3e\\makefile_builder\\templates\\wp81_ext_csproj.pyc'
p255
F1409106508.0
sS'c:\\marmalade\\7.4\\s3e\\makefile_builder\\plugins\\s3e_wp81.pyc'
p256
F1409106506.0
sS'c:\\marmalade\\7.4\\s3e\\makefile_builder\\plugins\\s3e_wp8.pyc'
p257
F1409106506.0
sS'c:\\marmalade\\7.4\\s3e\\makefile_builder\\templates\\qmake.py'
p258
F1409103204.0
sS'c:\\marmalade\\7.4\\s3e\\makefile_builder\\templates\\gdb_start.txt'
p259
F1409103204.0
sS'c:\\marmalade\\7.4\\s3e\\makefile_builder\\templates'
p260
F1411100123.9141958
sS'c:\\marmalade\\7.4\\s3e\\makefile_builder\\templates\\ws8_ext_csproj.pyc'
p261
F1409106508.0
sS'c:\\marmalade\\7.4\\s3e\\makefile_builder\\templates\\win8_csproj_user.pyc'
p262
F1409106508.0
sS'c:\\marmalade\\7.4\\s3e\\makefile_builder\\templates\\vc7_suo.pyc'
p263
F1409106506.0
sS'c:\\marmalade\\7.4\\s3e\\makefile_builder\\plugins\\VisualStudioEmitter.pyc'
p264
F1409106506.0
sS'c:\\marmalade\\7.4\\s3e\\makefile_builder\\templates\\linker_script'
p265
F1409103204.0
sS'c:\\marmalade\\7.4\\s3e\\makefile_builder\\docs\\deprecated.options.txt'
p266
F1409103204.0
sS'c:\\marmalade\\7.4\\s3e\\makefile_builder\\plugins\\s3e_xcode.pyc'
p267
F1411100331.054171
sS'c:\\marmalade\\7.4\\s3e\\makefile_builder\\plugins\\s3e_ws8.pyc'
p268
F1409106506.0
sS'c:\\marmalade\\7.4\\s3e\\makefile_builder\\templates\\xcode4_DeployTool.xcscheme'
p269
F1409103204.0
sS'c:\\marmalade\\7.4\\s3e\\makefile_builder\\templates\\ws8_csproj_user.pyc'
p270
F1409106508.0
sS'c:\\marmalade\\7.4\\s3e\\makefile_builder\\plugins\\osx_scons.pyc'
p271
F1409106506.0
sS'c:\\marmalade\\7.4\\s3e\\makefile_builder\\templates\\ws81_csproj.pyc'
p272
F1409106508.0
sS'c:\\marmalade\\7.4\\s3e\\makefile_builder\\templates\\wp8_sln.pyc'
p273
F1409106508.0
sS'c:\\marmalade\\7.4\\s3e\\makefile_builder\\docs'
p274
F1411100123.9332082
sS'c:\\marmalade\\7.4\\s3e\\makefile_builder\\plugins\\ws8_ws8.pyc'
p275
F1409106506.0
sS'c:\\marmalade\\7.4\\s3e\\makefile_builder\\docs\\deployment_options.txt'
p276
F1409103204.0
sS'c:\\marmalade\\7.4\\s3e\\makefile_builder\\templates\\win32_vcxproj_filters.pyc'
p277
F1409106506.0
sS'c:\\marmalade\\7.4\\s3e\\makefile_builder\\templates\\win32_dsw.pyc'
p278
F1409106506.0
sS'c:\\marmalade\\7.4\\s3e\\makefile_builder\\plugins\\s3e_ws81.pyc'
p279
F1409106506.0
sS'c:\\marmalade\\7.4\\s3e\\makefile_builder\\plugins\\SConsEmitter.pyc'
p280
F1409106506.0
sS'c:\\marmalade\\7.4\\s3e\\makefile_builder\\templates\\wp81_vcxproj.pyc'
p281
F1409106508.0
sS'c:\\marmalade\\7.4\\s3e\\makefile_builder\\plugins\\win8_utils.pyc'
p282
F1409106506.0
sS'c:\\marmalade\\7.4\\s3e\\makefile_builder\\templates\\template.opt'
p283
F1409103204.0
sS'c:\\marmalade\\7.4\\s3e\\makefile_builder\\plugins\\vc7_utils.pyc'
p284
F1409106506.0
sS'c:\\marmalade\\7.4\\s3e\\makefile_builder\\templates\\win32_dsp.pyc'
p285
F1409106506.0
sS'c:\\marmalade\\7.4\\s3e\\makefile_builder\\plugins\\s3e_make.pyc'
p286
F1409106506.0
sS'c:\\marmalade\\7.4\\s3e\\makefile_builder\\templates\\rvct_linker_script'
p287
F1409103204.0
sS'c:\\marmalade\\7.4\\s3e\\makefile_builder\\templates\\win8_csproj.pyc'
p288
F1409106508.0
sS'c:\\marmalade\\7.4\\s3e\\makefile_builder\\templates\\xcode.py'
p289
F1409103204.0
sS'c:\\marmalade\\7.4\\s3e\\makefile_builder\\templates\\ws8_vcxproj.pyc'
p290
F1409106508.0
sS'c:\\marmalade\\7.4\\s3e\\makefile_builder\\templates\\wp81_csproj.pyc'
p291
F1409106508.0
sS'c:\\marmalade\\7.4\\s3e\\makefile_builder\\mkb_upstream.pyc'
p292
F1409106506.0
sS'c:\\marmalade\\7.4\\s3e\\makefile_builder\\templates\\win32_vcxproj.pyc'
p293
F1409106506.0
sS'c:\\marmalade\\7.4\\s3e\\makefile_builder\\templates\\ws8_csproj.pyc'
p294
F1409106508.0
sS'c:\\marmalade\\7.4\\s3e\\makefile_builder\\docs\\parse_options.pyc'
p295
F1409106508.0
sS'c:\\marmalade\\7.4\\s3e\\makefile_builder\\templates\\Info.plist'
p296
F1409103204.0
sS'c:\\marmalade\\7.4\\s3e\\makefile_builder\\templates\\wp81_sln.pyc'
p297
F1409106508.0
sS'c:\\marmalade\\7.4\\s3e\\makefile_builder\\templates\\ws81_csproj_user.pyc'
p298
F1409106508.0
sS'c:\\marmalade\\7.4\\s3e\\makefile_builder\\templates\\ws81_vcxproj.pyc'
p299
F1409106508.0
sccopy_reg
_reconstructor
p300
(cmkb_main
MkbFile
p301
c__builtin__
object
p302
Ntp303
Rp304
(dp305
g5
(lp306
sS'target_name'
p307
S'GameThriveExample'
p308
sS'current_file'
p309
g121
sS'package_path'
p310
(lp311
sS'post_build'
p312
(lp313
(lp314
S'c:/marmalade/7.4/s3e/tools'
p315
aS'C:\\Marmalade\\7.4\\s3e\\python\\python.exe .\\process_map.py "$(TargetPath)"'
p316
aa(S'c:\\marmalade\\7.4\\s3e\\bin'
p317
S'"s3e_plink" -l "$(TargetPath)" '
p318
g156
tp319
asS'librarys'
p320
(lp321
g300
(cmkb_main
Library
p322
g302
Ntp323
Rp324
(dp325
S'name'
p326
S'vc6_compat.lib'
p327
sS'expand_name'
p328
I00
sS'include_spec_rvct_objs'
p329
(lp330
sS'include_all_objs'
p331
I00
sS'share_arm'
p332
I00
sS'arch'
p333
S'x86'
p334
sS'nodebug'
p335
I00
sg36
Nsbag300
(g322
g302
Ntp336
Rp337
(dp338
g326
S'iwutil'
p339
sg328
I01
sg329
(lp340
sg331
Nsg332
Nsg333
Nsg335
I00
sg36
Nsbag300
(g322
g302
Ntp341
Rp342
(dp343
g326
S'jpeg'
p344
sg328
I01
sg329
g340
sg331
Nsg332
Nsg333
Nsg335
I00
sg36
Nsbag300
(g322
g302
Ntp345
Rp346
(dp347
g326
S'z'
p348
sg328
I01
sg329
g340
sg331
Nsg332
Nsg333
Nsg335
I00
sg36
Nsbag300
(g322
g302
Ntp349
Rp350
(dp351
g326
S'png'
p352
sg328
I01
sg329
g340
sg331
Nsg332
Nsg333
Nsg335
I00
sg36
Nsbag300
(g322
g302
Ntp353
Rp354
(dp355
g326
S's3e_cpp'
p356
sg328
I01
sg329
g330
sg331
I00
sg332
I00
sg333
Nsg335
I00
sg36
Nsbag300
(g322
g302
Ntp357
Rp358
(dp359
g326
S's3e'
p360
sg328
I01
sg329
(lp361
S'iwcrt.o'
p362
asg331
I00
sg332
I00
sg333
Nsg335
I00
sg36
Nsbag300
(g322
g302
Ntp363
Rp364
(dp365
g326
S's3e_api'
p366
sg328
I01
sg329
g330
sg331
I00
sg332
I00
sg333
S'x86'
p367
sg335
I01
sg36
Nsbag300
(g322
g302
Ntp368
Rp369
(dp370
g326
g366
sg328
I01
sg329
g330
sg331
I00
sg332
I00
sg333
S'!x86'
p371
sg335
I01
sg36
Nsbag300
(g322
g302
Ntp372
Rp373
(dp374
g326
S'stdc++'
p375
sg328
I00
sg329
g330
sg331
I00
sg332
I00
sg333
S'mips'
p376
sg335
I00
sg36
Nsbag300
(g322
g302
Ntp377
Rp378
(dp379
g326
S'c'
p380
sg328
I00
sg329
g330
sg331
I00
sg332
I00
sg333
S'mips'
p381
sg335
I00
sg36
Nsbag300
(g322
g302
Ntp382
Rp383
(dp384
g326
S'm'
p385
sg328
I00
sg329
g330
sg331
I00
sg332
I00
sg333
S'mips'
p386
sg335
I00
sg36
Nsbag300
(g322
g302
Ntp387
Rp388
(dp389
g326
S'gcc'
p390
sg328
I00
sg329
g330
sg331
I00
sg332
I00
sg333
S'mips'
p391
sg335
I00
sg36
Nsbag300
(g322
g302
Ntp392
Rp393
(dp394
g326
S'stdc++'
p395
sg328
I00
sg329
g330
sg331
I00
sg332
I00
sg333
S'gcc_x86_android'
p396
sg335
I00
sg36
Nsbag300
(g322
g302
Ntp397
Rp398
(dp399
g326
g380
sg328
I00
sg329
g330
sg331
I00
sg332
I00
sg333
S'gcc_x86_android'
p400
sg335
I00
sg36
Nsbag300
(g322
g302
Ntp401
Rp402
(dp403
g326
g385
sg328
I00
sg329
g330
sg331
I00
sg332
I00
sg333
S'gcc_x86_android'
p404
sg335
I00
sg36
Nsbag300
(g322
g302
Ntp405
Rp406
(dp407
g326
g390
sg328
I00
sg329
g330
sg331
I00
sg332
I00
sg333
S'gcc_x86_android'
p408
sg335
I00
sg36
NsbasS'library_paths'
p409
(lp410
g300
(cmkb_main
LibraryPath
p411
g302
Ntp412
Rp413
(dp414
S'expand_path'
p415
I01
sg326
S'c:/marmalade/7.4/modules/iwutil'
p416
sbag300
(g411
g302
Ntp417
Rp418
(dp419
g415
I01
sg326
S'c:/marmalade/7.4/modules/third_party/libjpeg'
p420
sbag300
(g411
g302
Ntp421
Rp422
(dp423
g415
I01
sg326
S'c:/marmalade/7.4/modules/third_party/zlib'
p424
sbag300
(g411
g302
Ntp425
Rp426
(dp427
g415
I01
sg326
S'c:/marmalade/7.4/modules/third_party/libpng'
p428
sbag300
(g411
g302
Ntp429
Rp430
(dp431
g415
I01
sg326
S'c:/marmalade/7.4/s3e'
p432
sbasS'macros'
p433
(dp434
S'IW_ASSERTION_CHANNEL_GAMETHRIVE'
p435
S'1'
p436
sS'IW_USE_CALLSTACK'
p437
NsS'IW_MKF_S3EGAMETHRIVE'
p438
NsS'I3D_PLATFORM_S3E'
p439
NsS'IW_TRACE_CHANNEL_GAMETHRIVE_VERBOSE'
p440
S'2'
p441
sS'IW_MKF_IWUTIL'
p442
NsS'IW_SDK'
p443
NsS'S3E_INCLUDE_LEGACY'
p444
NsS'IW_PLATFORM_S3E'
p445
NsS'__S3E__'
p446
NsS'IW_USE_ASSERTIONS'
p447
NsS'_CRT_SECURE_NO_DEPRECATE'
p448
NsS'IW_TRACE_CHANNEL_GAMETHRIVE'
p449
g436
sS'IW_APP_NAME'
p450
S'"GameThriveExample"'
p451
sS'IW_MKF_LIBJPEG'
p452
NsS'I3D_OS_S3E'
p453
NsS'IW_APP_VERSION'
p454
S'"1.0"'
p455
sS'IW_DEBUG'
p456
NsS'IW_USE_TRACING'
p457
NsS'IW_MKF_ZLIB'
p458
NsS'IW_MKF_LIBPNG'
p459
NssS'done_warnings'
p460
(dp461
sS'subprojects'
p462
(dp463
g176
S'iwutil'
p464
sg179
S'zlib'
p465
sg175
S'../s3eGameThrive/s3eGameThrive.mkf'
p466
sg177
S'libjpeg'
p467
sg178
S'libpng'
p468
ssS'deployments'
p469
(dp470
S'Default'
p471
g300
(cdeployment
Deployment
p472
g302
Ntp473
Rp474
(dp475
S'got_version'
p476
I0
sS'assets'
p477
g471
sS'mkb'
p478
g304
sS'target'
p479
Nsg333
(lp480
sS'options'
p481
(dp482
S'iphone-link-lib'
p483
(lp484
S's3eGameThrive'
p485
asS'game-icf'
p486
NsS'android-tm'
p487
NsS'winmobile-icon32'
p488
NsS'ws8-logo-image150x150'
p489
NsS'wp81-logo-image150x150'
p490
NsS'ws81-product-version'
p491
NsS'osx-ext-dll'
p492
(lp493
sS'iphone-provisioning-profile'
p494
NsS'ws8-splash-screen-image620x300'
p495
NsS'wp81-extra-pri'
p496
(lp497
sS'ws8-ext-capabilities'
p498
(lp499
sS'android-icon-hdpi'
p500
NsS'brew-icon-large'
p501
NsS'iphone-splash-full-orient'
p502
NsS'wp8-tile-fliptemplate-supports-large'
p503
NsS'iphone-show-status-bar'
p504
NsS'roku-requires-mkv'
p505
NsS'long-caption'
p506
NsS'android-pkgname'
p507
NsS'wp81-publisher-display-name'
p508
NsS'blackberry-permissions-read-device-identifying-information'
p509
NsS'ws81-certificate-end-date'
p510
NsS'psp-dlgcontentid'
p511
NsS'iphone-minimum-ios-version'
p512
NsS'target-folder'
p513
NsS'tizen-dist1-CA-path'
p514
NsS'symbian-icon2-format'
p515
NsS'tizen-author-key'
p516
NsS'firefoxos-icon-128X128'
p517
NsS'iphone-region'
p518
NsS'uiq3-icon3-mask'
p519
NsS'brew-encoding'
p520
NsS'android-x86'
p521
NsS'nds-initialcode'
p522
NsS'iphone-persistent-wifi'
p523
NsS'psp-snd0'
p524
NsS'roku-icon-focus-hd'
p525
NsS'winmobile-install-folder'
p526
NsS'android-external-res'
p527
(lp528
S'c:/users/kasten/documents/gamethrive/sdk/marmalade/s3egamethrive/incoming/android/res'
p529
aS'c:/Users/Kasten/Documents/GameThrive/SDK/Marmalade/GameThriveExample/android/res'
p530
asS'ws8-product-version'
p531
NsS'brew-priviledges'
p532
NsS'iphone-icon-ipad-search'
p533
NsS'iphone-icon-ipad'
p534
NsS'roku-hidden'
p535
NsS'psp-titlename'
p536
NsS'wp81-product-version'
p537
NsS'symbian-icon1-mask'
p538
NsS'psp-parentallevel'
p539
NsS'splashscreen-use-all'
p540
NsS'wp8-author'
p541
NsS'symbian-disable-ecompxl'
p542
NsS'splashscreen-auto-onblack'
p543
NsS'win32-ext-dll'
p544
(lp545
sS'iphone-development-key'
p546
NsS'winmobile-icon48'
p547
NsS'android-unsigned'
p548
NsS'osx-appstore-category'
p549
NsS'version-revision'
p550
NsS'roku-icon-focus-sd'
p551
NsS'android-keystore'
p552
NsS'winmobile-png90'
p553
NsS'iphone-icon-ipad-high-res'
p554
NsS'iphone-disable-ipad'
p555
NsS'wp8-product-id'
p556
NsS'ws81-splash-screen-background'
p557
NsS'wp8-ext-capabilities'
p558
(lp559
sS'iphone-ipad-only'
p560
NsS'symbian-icon1-mask-black'
p561
NsS'iphone-nosign'
p562
NsS'iphone-bundle-localisations'
p563
NsS'winmobile-png60'
p564
NsS'blackberry-permissions-access-shared'
p565
NsS'blackberry-author'
p566
NsS'android-icon-xxxhdpi'
p567
NsS'olddeploytoolstyle'
p568
NsS'android_icon_gallery'
p569
NsS'wp81-splash-screen-background'
p570
NsS'winmobile-cab-compress'
p571
NsS'iphone-info-plist'
p572
NsS'ws81-ext-managed-dll'
p573
(lp574
sS'playbook-cskpass'
p575
NsS'ws8-distribution-pfx-password'
p576
NsS'symbian-key'
p577
NsS'app-icf'
p578
NsS'blackberry-storepass'
p579
NsS'wp8-tile-fliptemplate-back-title'
p580
NsS'brew-compress-loader'
p581
NsS'win32-pref-windowposy'
p582
NsS'win32-pref-windowposx'
p583
NsS'roku-requires-audiometadata'
p584
NsS'wp8-exclude-low-mem'
p585
NsS'iphone-icon-ipad-search-high-res'
p586
NsS'iphone-link-libdir'
p587
(lp588
S'c:/users/kasten/documents/gamethrive/sdk/marmalade/s3egamethrive/lib/iphone'
p589
asS'wp81-ext-capabilities'
p590
(lp591
sS'blackberry-permissions-read-geolocation'
p592
NsS'ws81-ext-device-capabilities'
p593
(lp594
sS'tizen-signed'
p595
NsS'android-extra-application-manifest'
p596
(lp597
S'c:/users/kasten/documents/gamethrive/sdk/marmalade/s3egamethrive/extras.application.txt'
p598
asS'ws8-ext-native-dll'
p599
(lp600
sS'symbian-icon2-mask'
p601
NsS'iphone-backgroundmode-audio'
p602
NsS'webos-memory'
p603
NsS'android-keypass'
p604
NsS'name'
p605
NsS'uiq3-icon2-format'
p606
NsS'roku-splash-screen-sd'
p607
NsS'auto-derbh'
p608
NsS'roku-icon-side-sd'
p609
NsS'android-external-assets'
p610
(lp611
sS'nds-publicsavedatasize'
p612
NsS'splashscreen'
p613
NsS'brew-mif'
p614
NsS'iphone-icon-settings-high-res'
p615
NsS'android-manifest'
p616
NsS'ws81-splash-screen-image620x300'
p617
NsS'wp81-product-name'
p618
NsS's3e-compression'
p619
NsS'tizen-author-password'
p620
NsS'wp8-tile-fliptemplate-back-content'
p621
NsS'blackberry-extra-descriptor'
p622
(lp623
sS'symbian-icon1'
p624
NsS'symbian-icon2'
p625
NsS'android-extra-styles-file'
p626
NsS'wp81-publisher-id'
p627
NsS'nds-bannertitle-jp'
p628
NsS'wp81-logo-image44x44'
p629
NsS'osx-sign-for-store'
p630
NsS'symbian7-uid'
p631
NsS'wp8-tile-fliptemplate-large-back-content'
p632
NsS'wp81-phone-publisher-id'
p633
NsS'nds-bannertitle-cn'
p634
NsS'iphone-distribution-key'
p635
NsS'android-icon-gallery'
p636
NsS'blackberry-keystore'
p637
NsS'ws8-extra-res'
p638
(lp639
sS'caption'
p640
NsS'android-extra-manifest'
p641
(lp642
S'c:/users/kasten/documents/gamethrive/sdk/marmalade/s3egamethrive/extras.manifest.txt'
p643
aS'c:/Users/Kasten/Documents/GameThrive/SDK/Marmalade/GameThriveExample/GameThriveExtraManifest.xml'
p644
asS'wp81-ext-sdk-ref'
p645
(lp646
sS'android-icon-xxhdpi'
p647
NsS'version-minor'
p648
NsS'iphone-link-libdirs'
p649
(lp650
sS'iphone-icon-large'
p651
NsS'symbian-keypwd'
p652
NsS'symbian8-uid'
p653
NsS'symbian-cert-key'
p654
NsS'winmobile-ampd-part-number'
p655
NsS'arch'
p656
NsS'nds-romheadertemplate'
p657
NsS'webos-icon'
p658
NsS'wp81-ext-device-capabilities'
p659
(lp660
sS'psp-dlgprotectdocument'
p661
NsS'ws8-splash-screen-background'
p662
NsS'android-icon-mdpi'
p663
NsS'nds-icon'
p664
NsS'ws8-custom-manifest-fill'
p665
NsS'iphone-development-cert'
p666
NsS'blackberry-phone-icon'
p667
NsS'iphone-enable-4inch-retina'
p668
NsS'ws8-custom-manifest'
p669
NsS'version-major'
p670
NsS'wp8-genre-isgame'
p671
NsS'uiq3-uid'
p672
NsS'iphone-splash-retina-generate'
p673
NsS'tizen-hw-acceleration'
p674
NsS'iphone_bundle_localisations'
p675
NsS'tizen-dist1-key'
p676
NsS'wp81-custom-manifest-fill'
p677
NsS'wp8-custom-manifest'
p678
S'c:/Users/Kasten/Documents/GameThrive/SDK/Marmalade/GameThriveExample/GameThriveCustomWP8Manifest.xml'
p679
sS'nds-bannertitle-ge'
p680
NsS'iphone-sign-for-distribution'
p681
NsS'wp8-tile-fliptemplate-medium-back-image'
p682
NsS'wp8-publisher-id'
p683
NsS'icon'
p684
NsS'wp8-exclude-wxga'
p685
NsS'wp81-identity-name'
p686
NsS'uiq3-icon2-mask'
p687
NsS'iphone-splashscreen-portrait'
p688
NsS'iphone-icon-high-res'
p689
NsS'ws81-distribution-pfx-password'
p690
NsS'playbook-author'
p691
NsS'android-icon-xhdpi'
p692
NsS'linux-ext-lib'
p693
(lp694
sS'blackberry-permissions-access-internet'
p695
NsS'wp8-exclude-720p'
p696
NsS'lgtv-use-drm'
p697
NsS'symbian-platsecflags'
p698
NsS'ws8-description'
p699
NsS'blackberry-playbook-icon'
p700
NsS'copyright'
p701
NsS'win32-gles-directory'
p702
NsS'version'
p703
NsS'ws81-logo-image150x150'
p704
NsS'osx-signing-identity-app'
p705
NsS'tizen-project-url'
p706
NsS'symbian-icon-svg'
p707
NsS'android-aliasname'
p708
NsS'psp-dlgmanual'
p709
NsS'brew-uid'
p710
NsS'symbian-locationsupport'
p711
NsS'wp81-logo-image50x50'
p712
NsS'ws8-ext-managed-dll'
p713
(lp714
sS'nds-bannertitle-it'
p715
NsS'ws81-custom-manifest-fill'
p716
NsS'ws8-ext-sdk-manifest-part'
p717
(lp718
sS'uiq3-icon1-mask'
p719
NsS'winmobile-icon16'
p720
NsS'ws8-product-name'
p721
NsS'blackberry-cskpass'
p722
NsS'winmobile-start-menu-folder'
p723
NsS'brew-clsid'
p724
NsS'roku-requires-bluetooth'
p725
NsS'ws8-ext-device-capabilities'
p726
(lp727
sS'blackberry-permissions-use-camera'
p728
NsS'ws81-extra-pri'
p729
(lp730
sS'iphone-prerendered-icon'
p731
NsS'iphone-appid'
p732
NsS'ws8-identity-name'
p733
NsS'tizen-dist2-CA-path'
p734
NsS'android-external-jars'
p735
(lp736
S'c:/users/kasten/documents/gamethrive/sdk/marmalade/s3egamethrive/incoming/android/GameThriveSDK.jar'
p737
aS'c:/users/kasten/documents/gamethrive/sdk/marmalade/s3egamethrive/lib/android/s3eGameThrive.jar'
p738
aS'c:/users/kasten/documents/gamethrive/sdk/marmalade/s3egamethrive/incoming/android/google-play-services.jar'
p739
aS'c:/users/kasten/documents/gamethrive/sdk/marmalade/s3egamethrive/incoming/android/android-support-v4.jar'
p740
asS'winmobile-icon64'
p741
NsS'blackberry-permissions-post-notification'
p742
NsS'winmobile-setup-dll'
p743
NsS'firefoxos-manifest'
p744
NsS'win8-winrt-extra-res'
p745
(lp746
sS'wp81-ext-sdk-manifest-part'
p747
(lp748
sS'symbian9-uid'
p749
NsS'iphone-icon-ipad-ios7'
p750
NsS'winmobile-trace-file'
p751
NsS'roku-splash-color'
p752
NsS'psp-appversion'
p753
NsS'ws8-publisher-id'
p754
NsS'android-supports-gl-texture'
p755
(lp756
sS'winmobile-png45'
p757
NsS'wp81-extra-res'
p758
(lp759
sS'android-storepass'
p760
NsS'osx-signing-identity-inst'
p761
NsS'android-custom-activity'
p762
NsS'psp-discversion'
p763
NsS'wp81-ext-managed-dll'
p764
(lp765
sS'psp-copyright'
p766
NsS'embed-icf'
p767
NsS'tizen-manifest'
p768
NsS'osx-icon'
p769
NsS'webos-appinfo'
p770
NsS'psp-dlghealthwarning'
p771
NsS'webos-appid'
p772
NsS'roku-icon-side-hd'
p773
NsS'iphone-icon-ipad-search-high-res-ios7'
p774
NsS'ws81-ext-sdk-manifest-part'
p775
(lp776
sS'loader_name_prefix'
p777
NsS'nds-titlename'
p778
NsS'ws81-logo-image50x50'
p779
NsS'wp81-custom-manifest'
p780
NsS'osx-entitlements-plist'
p781
NsS'psp-dlgicon0'
p782
NsS'winmobile-nouninstall'
p783
NsS'psp-discid'
p784
NsS'tizen-dist2-password'
p785
NsS'ws8-ext-sdk-ref'
p786
(lp787
sS'iphone-extra-string'
p788
(lp789
sS'version-string'
p790
NsS'iphone-icon-high-res-ios7'
p791
NsS'blackberry-permissions-record-audio'
p792
NsS'ws8-certificate-end-date'
p793
NsS'tizen-so'
p794
(lp795
sS'wp8-tile-fliptemplate-small-image'
p796
NsS'playbook-authorid'
p797
NsS'iphone-signing-identity'
p798
NsS'roku-persist-quota'
p799
NsS'nds-bannertitle-fr'
p800
NsS'ws8-distribution-pfx'
p801
NsS'ws8-publisher-display-name'
p802
NsS'brew-icon-small'
p803
NsS'psp-dlgpic2'
p804
NsS'psp-dlgpic0'
p805
NsS'psp-pic0'
p806
NsS'psp-pic1'
p807
NsS'win32-pref-windowtitle'
p808
NsS'psp-icon0'
p809
NsS'psp-icon1'
p810
NsS'ws81-identity-name'
p811
NsS'winmobile-icon'
p812
NsS'iphone-no-splash'
p813
NsS'iphone-splash'
p814
NsS'iphone-app-fonts'
p815
NsS'wp8-ext-native-dll'
p816
(lp817
S'c:/users/kasten/documents/gamethrive/sdk/marmalade/s3egamethrive/lib/wp8/s3eGameThriveExtension.dll'
p818
asS'wp81-splash-screen-image480x800'
p819
NsS'ws81-distribution-cer'
p820
NsS'uiq3-icon2'
p821
NsS'uiq3-icon3'
p822
NsS'uiq3-icon1'
p823
NsS'uiq3-icon1-format'
p824
NsS'ws8-logo-image50x50'
p825
NsS'symbian-icon2-mask-black'
p826
NsS'symbian-run-on-install'
p827
NsS'wp81-description'
p828
NsS'ws81-publisher-display-name'
p829
NsS'firefoxos-xulrunner'
p830
NsS'symbian-soundrecordsupport'
p831
NsS'nds-bannertitle-sp'
p832
NsS'psp-producer'
p833
NsS'iphone-apple-wwdr-cert'
p834
NsS'android-icon-nonstandard'
p835
NsS'win32-pref-processtitle'
p836
NsS'nds-bannertitle-hn'
p837
NsS'tizen-dist2-key'
p838
NsS'brew-depends'
p839
NsS'ws81-custom-manifest'
p840
NsS'iphone-icon-ipad-search-ios7'
p841
NsS'brew-icon-medium'
p842
NsS'iphone-bundle-url-name'
p843
NsS'wp8-tile-fliptemplate-large-front-image'
p844
NsS'tizen-dist2-CA-root-path'
p845
NsS'ws81-description'
p846
NsS'uiq3-icon3-format'
p847
NsS'ws81-logo-image30x30'
p848
NsS'win8-phone-extra-res'
p849
(lp850
sS'iphone-signing-host'
p851
NsS'tizen-icon'
p852
NsS'osx-info-plist'
p853
NsS'symbian-icon1-format'
p854
NsS'win8-store-extra-res'
p855
(lp856
sS'blackberry-authorid'
p857
NsS'ws81-publisher-id'
p858
NsS'ws81-distribution-pfx'
p859
NsS'wp8-description'
p860
NsS'iphone-link-opts'
p861
(lp862
S'-weak_framework UIKit'
p863
asS'ws81-ext-sdk-ref'
p864
(lp865
sS'roku-splash-min-time'
p866
NsS'wp8-tile-fliptemplate-medium-front-image'
p867
NsS'provider'
p868
NsS'playbook-keystore'
p869
NsS'tizen-appid'
p870
NsS'wp8-extra-res'
p871
(lp872
sS'symbian-osexecsupport'
p873
NsS'android-install-location'
p874
NsS'nds-privatesavedatasize'
p875
NsS'playbook-storepass'
p876
NsS'android-icon-ldpi'
p877
NsS'manufacturer'
p878
NsS'itunes-artwork'
p879
NsS'iphone-extra-sections'
p880
NsS'ws81-product-name'
p881
NsS'ws81-ext-native-dll'
p882
(lp883
sS'ws8-extra-pri'
p884
(lp885
sS'win32-icon'
p886
NsS'ws8-logo-image30x30'
p887
NsS'wp8-ext-managed-dll'
p888
(lp889
S'c:/users/kasten/documents/gamethrive/sdk/marmalade/s3egamethrive/incoming/wp8/GameThriveSDK.dll'
p890
aS'c:/users/kasten/documents/gamethrive/sdk/marmalade/s3egamethrive/incoming/wp8/Newtonsoft.Json.dll'
p891
aS'c:/users/kasten/documents/gamethrive/sdk/marmalade/s3egamethrive/lib/wp8/s3eGameThriveManaged.dll'
p892
asS'iphone-splashscreen-landscape'
p893
NsS'symbian-maxheapsize'
p894
NsS'nds-makercode'
p895
NsS'priv-sign-key'
p896
NsS'networking'
p897
NsS'android-icon'
p898
NsS'iphone-icon-settings'
p899
NsS'wp81-phone-product-id'
p900
NsS'firefoxos-icon-60X60'
p901
NsS'iphone-distribution-cert'
p902
NsS'android_extra_strings'
p903
NsS'nds-bannertitle-en'
p904
NsS'wp8-tile-fliptemplate-title'
p905
NsS'android-so'
p906
(lp907
S'c:/users/kasten/documents/gamethrive/sdk/marmalade/s3egamethrive/lib/android/libGameThrive.so'
p908
asS'wp8-higher-mem'
p909
NsS'wp8-ext-sdk-ref'
p910
(lp911
sS'roku-splash-screen-hd'
p912
NsS'iphone-bundle-url-schemes'
p913
NsS'roku-screensaver-private'
p914
NsS'osx-extra-res'
p915
(lp916
sS'ws81-extra-res'
p917
(lp918
sS'playbook-icon'
p919
NsS'uid'
p920
NsS'pkguid-as-uid'
p921
NsS'wp81-ext-native-dll'
p922
(lp923
sS'tizen-dist1-password'
p924
NsS'roku-screensaver-title'
p925
NsS'osx-minimum-osx-version'
p926
NsS'symbian-cert'
p927
NsS'iphone-icon'
p928
NsS'ws81-ext-capabilities'
p929
(lp930
sS'ws8-distribution-cer'
p931
NsS'playbook-access-shared'
p932
NsS'iphone-icon-ipad-high-res-ios7'
p933
NsS'iphone-link-libs'
p934
(lp935
sS'wp8-exclude-wvga'
p936
NsS'assets'
p937
NsS'wp8-tile-fliptemplate-large-back-image'
p938
NsS'wp8-custom-manifest-fill'
p939
I0
sS'pub-sign-key'
p940
NsS'android-extra-strings'
p941
NsS'tizen-author-CA-path'
p942
Nssg326
g471
sbssS'platform'
p943
S'S3E'
p944
sg64
S'1.0'
p945
sS'arcade_platform'
p946
g4
sS'extensions'
p947
(dp948
sS'source_groups_tree'
p949
(dp950
S'(libpng)'
p951
(dp952
S'h'
p953
(dp954
S'c:/marmalade/7.4/modules/third_party/libpng/h/png.h'
p955
(lp956
I1
a(dp957
asS'c:/marmalade/7.4/modules/third_party/libpng/h/pngconf.h'
p958
(lp959
I1
ag957
assS'c:/marmalade/7.4/modules/third_party/libpng/libpng.mkf'
p960
(lp961
I1
a(dp962
assS'(libjpeg)'
p963
(dp964
g953
(dp965
S'c:/marmalade/7.4/modules/third_party/libjpeg/h/jerror.h'
p966
(lp967
I1
a(dp968
asS'c:/marmalade/7.4/modules/third_party/libjpeg/h/jmemsys.h'
p969
(lp970
I1
ag968
asS'c:/marmalade/7.4/modules/third_party/libjpeg/h/jpegint.h'
p971
(lp972
I1
ag968
asS'c:/marmalade/7.4/modules/third_party/libjpeg/h/jpeglib.h'
p973
(lp974
I1
ag968
asS'c:/marmalade/7.4/modules/third_party/libjpeg/h/cdjpeg.h'
p975
(lp976
I1
ag968
asS'c:/marmalade/7.4/modules/third_party/libjpeg/h/jchuff.h'
p977
(lp978
I1
ag968
asS'c:/marmalade/7.4/modules/third_party/libjpeg/h/jconfig.h'
p979
(lp980
I1
ag968
asS'c:/marmalade/7.4/modules/third_party/libjpeg/h/jinclude.h'
p981
(lp982
I1
ag968
asS'c:/marmalade/7.4/modules/third_party/libjpeg/h/cderror.h'
p983
(lp984
I1
ag968
asS'c:/marmalade/7.4/modules/third_party/libjpeg/h/jdct.h'
p985
(lp986
I1
ag968
asS'c:/marmalade/7.4/modules/third_party/libjpeg/h/jversion.h'
p987
(lp988
I1
ag968
asS'c:/marmalade/7.4/modules/third_party/libjpeg/h/transupp.h'
p989
(lp990
I1
ag968
asS'c:/marmalade/7.4/modules/third_party/libjpeg/h/jdhuff.h'
p991
(lp992
I1
ag968
asS'c:/marmalade/7.4/modules/third_party/libjpeg/h/jmorecfg.h'
p993
(lp994
I1
ag968
assS'c:/marmalade/7.4/modules/third_party/libjpeg/libjpeg.mkf'
p995
(lp996
I1
a(dp997
assS'Source'
p998
(dp999
S'c:/Users/Kasten/Documents/GameThrive/SDK/Marmalade/GameThriveExample/GameThriveExample.cpp'
p1000
(lp1001
I1
a(dp1002
assS'Extensions'
p1003
(dp1004
S'GameThrive'
p1005
(dp1006
S'interface'
p1007
(dp1008
S'c:/users/kasten/documents/gamethrive/sdk/marmalade/s3egamethrive/interface/s3eGameThrive.defines.txt'
p1009
(lp1010
I1
a(dp1011
asS'c:/users/kasten/documents/gamethrive/sdk/marmalade/s3egamethrive/interface/s3eGameThrive_interface.cpp'
p1012
(lp1013
I1
ag1011
assS'c:/users/kasten/documents/gamethrive/sdk/marmalade/s3egamethrive/h/s3eGameThrive.h'
p1014
(lp1015
I1
ag1011
asS'c:/users/kasten/documents/gamethrive/sdk/marmalade/s3egamethrive/s3egamethrive.mkf'
p1016
(lp1017
I1
a(dp1018
asssS"'Marmalade Studio'"
p1019
(dp1020
S'iwutil'
p1021
(dp1022
S'c:/marmalade/7.4/modules/iwutil/h/IwTextParser.h'
p1023
(lp1024
I1
a(dp1025
asS'c:/marmalade/7.4/modules/iwutil/h/IwMenu.h'
p1026
(lp1027
I1
ag1025
asS'c:/marmalade/7.4/modules/iwutil/h/IwUtilInitTerm.h'
p1028
(lp1029
I1
ag1025
asS'c:/marmalade/7.4/modules/iwutil/h/IwCopyingPtr.h'
p1030
(lp1031
I1
ag1025
asS'c:/marmalade/7.4/modules/iwutil/h/IwDebug.h'
p1032
(lp1033
I1
ag1025
asS'c:/marmalade/7.4/modules/iwutil/h/IwVariableBitField.h'
p1034
(lp1035
I1
ag1025
asS'c:/marmalade/7.4/modules/iwutil/h/IwBuffer.h'
p1036
(lp1037
I1
ag1025
asS'c:/marmalade/7.4/modules/iwutil/h/IwKeymap.h'
p1038
(lp1039
I1
ag1025
asS'c:/marmalade/7.4/modules/iwutil/h/IwResource.h'
p1040
(lp1041
I1
ag1025
asS'c:/marmalade/7.4/modules/iwutil/h/IwCore.h'
p1042
(lp1043
I1
ag1025
asS'c:/marmalade/7.4/modules/iwutil/h/IwTextParserITX.h'
p1044
(lp1045
I1
ag1025
asS'c:/marmalade/7.4/modules/iwutil/h/IwRandom.h'
p1046
(lp1047
I1
ag1025
asS'c:/marmalade/7.4/modules/iwutil/h/IwHashString.h'
p1048
(lp1049
I1
ag1025
asS'c:/marmalade/7.4/modules/iwutil/h/IwProfileMenu.h'
p1050
(lp1051
I1
ag1025
asS'c:/marmalade/7.4/modules/iwutil/h/IwManagedList.h'
p1052
(lp1053
I1
ag1025
asS'c:/marmalade/7.4/modules/iwutil/h/IwList.h'
p1054
(lp1055
I1
ag1025
asS'c:/marmalade/7.4/modules/iwutil/h/IwSerialise.h'
p1056
(lp1057
I1
ag1025
asS'c:/marmalade/7.4/modules/iwutil/h/IwClassFactory.h'
p1058
(lp1059
I1
ag1025
asS'c:/marmalade/7.4/modules/iwutil/h/IwTypes.h'
p1060
(lp1061
I1
ag1025
asS'c:/marmalade/7.4/modules/iwutil/h/IwAllocator.h'
p1062
(lp1063
I1
ag1025
asS'c:/marmalade/7.4/modules/iwutil/docs/iwutil.config.txt'
p1064
(lp1065
I1
ag1025
asS'c:/marmalade/7.4/modules/iwutil/h/IwTextParseable.h'
p1066
(lp1067
I1
ag1025
asS'c:/marmalade/7.4/modules/iwutil/h/IwFile.h'
p1068
(lp1069
I1
ag1025
asS'c:/marmalade/7.4/modules/iwutil/h/IwRuntime.h'
p1070
(lp1071
I1
ag1025
asS'c:/marmalade/7.4/modules/iwutil/h/IwMemBucketHelpers.h'
p1072
(lp1073
I1
ag1025
asS'c:/marmalade/7.4/modules/iwutil/h/IwUncopyable.h'
p1074
(lp1075
I1
ag1025
asS'c:/marmalade/7.4/modules/iwutil/h/IwOptimiseSpeed.h'
p1076
(lp1077
I1
ag1025
asS'c:/marmalade/7.4/modules/iwutil/h/IwOptimiseARM.h'
p1078
(lp1079
I1
ag1025
asS'c:/marmalade/7.4/modules/iwutil/h/IwImage.h'
p1080
(lp1081
I1
ag1025
asS'c:/marmalade/7.4/modules/iwutil/h/IwImageHelper.h'
p1082
(lp1083
I1
ag1025
asS'c:/marmalade/7.4/modules/iwutil/h/IwMemBucket.h'
p1084
(lp1085
I1
ag1025
asS'c:/marmalade/7.4/modules/iwutil/h/IwDivide.h'
p1086
(lp1087
I1
ag1025
asS'c:/marmalade/7.4/modules/iwutil/h/IwChar.h'
p1088
(lp1089
I1
ag1025
asS'c:/marmalade/7.4/modules/iwutil/h/IwArray.h'
p1090
(lp1091
I1
ag1025
asS'c:/marmalade/7.4/modules/iwutil/h/IwMemory.h'
p1092
(lp1093
I1
ag1025
asS'c:/marmalade/7.4/modules/iwutil/h/IwManaged.h'
p1094
(lp1095
I1
ag1025
asS'c:/marmalade/7.4/modules/iwutil/h/IwUTF8.h'
p1096
(lp1097
I1
ag1025
asS'c:/marmalade/7.4/modules/iwutil/h/IwEvent.h'
p1098
(lp1099
I1
ag1025
asS'c:/marmalade/7.4/modules/iwutil/h/IwMath.h'
p1100
(lp1101
I1
ag1025
asS'c:/marmalade/7.4/modules/iwutil/h/IwAutoFile.h'
p1102
(lp1103
I1
ag1025
asS'c:/marmalade/7.4/modules/iwutil/h/IwString.h'
p1104
(lp1105
I1
ag1025
asS'c:/marmalade/7.4/modules/iwutil/iwutil.mkf'
p1106
(lp1107
I1
a(dp1108
asS'c:/marmalade/7.4/modules/iwutil/h/IwSingleton.h'
p1109
(lp1110
I1
ag1025
asS'c:/marmalade/7.4/modules/iwutil/h/IwFibre.h'
p1111
(lp1112
I1
ag1025
asS'c:/marmalade/7.4/modules/iwutil/h/IwOptimiseThumb.h'
p1113
(lp1114
I1
ag1025
asS'c:/marmalade/7.4/modules/iwutil/h/IwUtil.h'
p1115
(lp1116
I1
ag1025
asS'c:/marmalade/7.4/modules/iwutil/h/IwPath.h'
p1117
(lp1118
I1
ag1025
asS'c:/marmalade/7.4/modules/iwutil/h/IwMemManagerDL.h'
p1119
(lp1120
I1
ag1025
asS'c:/marmalade/7.4/modules/iwutil/h/IwDivTable.h'
p1121
(lp1122
I1
ag1025
asS'c:/marmalade/7.4/modules/iwutil/h/IwOptimiseSize.h'
p1123
(lp1124
I1
ag1025
asssS'(zlib)'
p1125
(dp1126
g953
(dp1127
S'c:/marmalade/7.4/modules/third_party/zlib/h/zconf.h'
p1128
(lp1129
I1
a(dp1130
asS'c:/marmalade/7.4/modules/third_party/zlib/h/zlib.h'
p1131
(lp1132
I1
ag1130
assS'c:/marmalade/7.4/modules/third_party/zlib/zlib.mkf'
p1133
(lp1134
I1
a(dp1135
assS'Data'
p1136
(dp1137
S'c:/Users/Kasten/Documents/GameThrive/SDK/Marmalade/GameThriveExample/data/notification.wav'
p1138
(lp1139
I1
ag1002
asssS'files'
p1140
(dp1141
S'hash_map'
p1142
g300
(cmkb_main
File
p1143
g302
Ntp1144
Rp1145
(dp1146
S'flags'
p1147
(dp1148
sS'group'
p1149
(lp1150
S"'Marmalade System (S3E)'"
p1151
aS'stdc headers'
p1152
aS'c++'
p1153
asg326
S'c:/marmalade/7.4/s3e/h/std/c++/hash_map'
p1154
sbsS'IwArray.h'
p1155
g300
(g1143
g302
Ntp1156
Rp1157
(dp1158
g1147
g1025
sg1149
(lp1159
g1019
ag1021
asg326
g1090
sbsS'iterator'
p1160
g300
(g1143
g302
Ntp1161
Rp1162
(dp1163
g1147
g1148
sg1149
g1150
sg326
S'c:/marmalade/7.4/s3e/h/std/c++/iterator'
p1164
sbsS'IwUTF8.h'
p1165
g300
(g1143
g302
Ntp1166
Rp1167
(dp1168
g1147
g1025
sg1149
g1159
sg326
g1096
sbsS'math_rvct.h'
p1169
g300
(g1143
g302
Ntp1170
Rp1171
(dp1172
g1147
g1148
sg1149
(lp1173
g1151
aS'stdc headers'
p1174
asg326
S'c:/marmalade/7.4/s3e/h/std/math_rvct.h'
p1175
sbsS'pthread_alloc'
p1176
g300
(g1143
g302
Ntp1177
Rp1178
(dp1179
g1147
g1148
sg1149
g1150
sg326
S'c:/marmalade/7.4/s3e/h/std/c++/pthread_alloc'
p1180
sbsS'ctype.h'
p1181
g300
(g1143
g302
Ntp1182
Rp1183
(dp1184
g1147
g1148
sg1149
g1173
sg326
S'c:/marmalade/7.4/s3e/h/std/ctype.h'
p1185
sbsS'ctime'
p1186
g300
(g1143
g302
Ntp1187
Rp1188
(dp1189
g1147
g1148
sg1149
g1150
sg326
S'c:/marmalade/7.4/s3e/h/std/c++/ctime'
p1190
sbsS's3e.h'
p1191
g300
(g1143
g302
Ntp1192
Rp1193
(dp1194
g1147
g1148
sg1149
(lp1195
g1151
asg326
S'c:/marmalade/7.4/s3e/h/s3e.h'
p1196
sbsS'errno.h'
p1197
g300
(g1143
g302
Ntp1198
Rp1199
(dp1200
g1147
g1148
sg1149
g1173
sg326
S'c:/marmalade/7.4/s3e/h/std/errno.h'
p1201
sbsS'IwUtil.h'
p1202
g300
(g1143
g302
Ntp1203
Rp1204
(dp1205
g1147
g1025
sg1149
g1159
sg326
g1115
sbsS'IwSingleton.h'
p1206
g300
(g1143
g302
Ntp1207
Rp1208
(dp1209
g1147
g1025
sg1149
g1159
sg326
g1109
sbsS'dirent.h'
p1210
g300
(g1143
g302
Ntp1211
Rp1212
(dp1213
g1147
g1148
sg1149
g1173
sg326
S'c:/marmalade/7.4/s3e/h/std/dirent.h'
p1214
sbsS'IwCore.h'
p1215
g300
(g1143
g302
Ntp1216
Rp1217
(dp1218
g1147
g1025
sg1149
g1159
sg326
g1042
sbsS'dlfcn.h'
p1219
g300
(g1143
g302
Ntp1220
Rp1221
(dp1222
g1147
g1148
sg1149
g1173
sg326
S'c:/marmalade/7.4/s3e/h/std/dlfcn.h'
p1223
sbsS'fstream.h'
p1224
g300
(g1143
g302
Ntp1225
Rp1226
(dp1227
g1147
g1148
sg1149
g1150
sg326
S'c:/marmalade/7.4/s3e/h/std/c++/fstream.h'
p1228
sbsS'cfloat'
p1229
g300
(g1143
g302
Ntp1230
Rp1231
(dp1232
g1147
g1148
sg1149
g1150
sg326
S'c:/marmalade/7.4/s3e/h/std/c++/cfloat'
p1233
sbsS'IwAllocator.h'
p1234
g300
(g1143
g302
Ntp1235
Rp1236
(dp1237
g1147
g1025
sg1149
g1159
sg326
g1062
sbsS'stdio_streambuf'
p1238
g300
(g1143
g302
Ntp1239
Rp1240
(dp1241
g1147
g1148
sg1149
g1150
sg326
S'c:/marmalade/7.4/s3e/h/std/c++/stdio_streambuf'
p1242
sbsS's3eGL.h'
p1243
g300
(g1143
g302
Ntp1244
Rp1245
(dp1246
g1147
g1148
sg1149
g1195
sg326
S'c:/marmalade/7.4/s3e/h/s3eGL.h'
p1247
sbsS'wctype.h'
p1248
g300
(g1143
g302
Ntp1249
Rp1250
(dp1251
g1147
g1148
sg1149
g1173
sg326
S'c:/marmalade/7.4/s3e/h/std/wctype.h'
p1252
sbsS'IwPath.h'
p1253
g300
(g1143
g302
Ntp1254
Rp1255
(dp1256
g1147
g1025
sg1149
g1159
sg326
g1117
sbsS'sched.h'
p1257
g300
(g1143
g302
Ntp1258
Rp1259
(dp1260
g1147
g1148
sg1149
g1173
sg326
S'c:/marmalade/7.4/s3e/h/std/sched.h'
p1261
sbsS'valarray'
p1262
g300
(g1143
g302
Ntp1263
Rp1264
(dp1265
g1147
g1148
sg1149
g1150
sg326
S'c:/marmalade/7.4/s3e/h/std/c++/valarray'
p1266
sbsS'cassert'
p1267
g300
(g1143
g302
Ntp1268
Rp1269
(dp1270
g1147
g1148
sg1149
g1150
sg326
S'c:/marmalade/7.4/s3e/h/std/c++/cassert'
p1271
sbsS'grp.h'
p1272
g300
(g1143
g302
Ntp1273
Rp1274
(dp1275
g1147
g1148
sg1149
g1173
sg326
S'c:/marmalade/7.4/s3e/h/std/grp.h'
p1276
sbsS'list'
p1277
g300
(g1143
g302
Ntp1278
Rp1279
(dp1280
g1147
g1148
sg1149
g1150
sg326
S'c:/marmalade/7.4/s3e/h/std/c++/list'
p1281
sbsS'istream'
p1282
g300
(g1143
g302
Ntp1283
Rp1284
(dp1285
g1147
g1148
sg1149
g1150
sg326
S'c:/marmalade/7.4/s3e/h/std/c++/istream'
p1286
sbsS'poll.h'
p1287
g300
(g1143
g302
Ntp1288
Rp1289
(dp1290
g1147
g1148
sg1149
g1173
sg326
S'c:/marmalade/7.4/s3e/h/std/poll.h'
p1291
sbsS'jpeglib.h'
p1292
g300
(g1143
g302
Ntp1293
Rp1294
(dp1295
g1147
g968
sg1149
(lp1296
g963
ag953
asg326
g973
sbsS's3eAccelerometer.h'
p1297
g300
(g1143
g302
Ntp1298
Rp1299
(dp1300
g1147
g1148
sg1149
g1195
sg326
S'c:/marmalade/7.4/s3e/h/s3eAccelerometer.h'
p1301
sbsS'iostream.h'
p1302
g300
(g1143
g302
Ntp1303
Rp1304
(dp1305
g1147
g1148
sg1149
g1150
sg326
S'c:/marmalade/7.4/s3e/h/std/c++/iostream.h'
p1306
sbsS's3eOSReadString.h'
p1307
g300
(g1143
g302
Ntp1308
Rp1309
(dp1310
g1147
g1148
sg1149
(lp1311
g1151
aS'Extensions'
p1312
asg326
S'c:/marmalade/7.4/s3e/h/ext/s3eOSReadString.h'
p1313
sbsS'cstddef'
p1314
g300
(g1143
g302
Ntp1315
Rp1316
(dp1317
g1147
g1148
sg1149
g1150
sg326
S'c:/marmalade/7.4/s3e/h/std/c++/cstddef'
p1318
sbsS'iosfwd'
p1319
g300
(g1143
g302
Ntp1320
Rp1321
(dp1322
g1147
g1148
sg1149
g1150
sg326
S'c:/marmalade/7.4/s3e/h/std/c++/iosfwd'
p1323
sbsS'string'
p1324
g300
(g1143
g302
Ntp1325
Rp1326
(dp1327
g1147
g1148
sg1149
g1150
sg326
S'c:/marmalade/7.4/s3e/h/std/c++/string'
p1328
sbsS's3egamethrive.mkf'
p1329
g300
(g1143
g302
Ntp1330
Rp1331
(dp1332
g1147
g1018
sg1149
(lp1333
g1003
ag1005
asg326
g1016
sbsS'IwMemory.h'
p1334
g300
(g1143
g302
Ntp1335
Rp1336
(dp1337
g1147
g1025
sg1149
g1159
sg326
g1092
sbsS'mman.h'
p1338
g300
(g1143
g302
Ntp1339
Rp1340
(dp1341
g1147
g1148
sg1149
(lp1342
g1151
aS'stdc headers'
p1343
aS'sys'
p1344
asg326
S'c:/marmalade/7.4/s3e/h/std/sys/mman.h'
p1345
sbsS'IwRandom.h'
p1346
g300
(g1143
g302
Ntp1347
Rp1348
(dp1349
g1147
g1025
sg1149
g1159
sg326
g1046
sbsS'libgen.h'
p1350
g300
(g1143
g302
Ntp1351
Rp1352
(dp1353
g1147
g1148
sg1149
g1173
sg326
S'c:/marmalade/7.4/s3e/h/std/libgen.h'
p1354
sbsS'utsname.h'
p1355
g300
(g1143
g302
Ntp1356
Rp1357
(dp1358
g1147
g1148
sg1149
g1342
sg326
S'c:/marmalade/7.4/s3e/h/std/sys/utsname.h'
p1359
sbsS'notification.wav'
p1360
g300
(g1143
g302
Ntp1361
Rp1362
(dp1363
g1147
g1002
sg1149
(lp1364
g1136
asg326
g1138
sbsS'wait.h'
p1365
g300
(g1143
g302
Ntp1366
Rp1367
(dp1368
g1147
g1148
sg1149
g1342
sg326
S'c:/marmalade/7.4/s3e/h/std/sys/wait.h'
p1369
sbsS'IwFile.h'
p1370
g300
(g1143
g302
Ntp1371
Rp1372
(dp1373
g1147
g1025
sg1149
g1159
sg326
g1068
sbsS'IwTextParseable.h'
p1374
g300
(g1143
g302
Ntp1375
Rp1376
(dp1377
g1147
g1025
sg1149
g1159
sg326
g1066
sbsS'istream.h'
p1378
g300
(g1143
g302
Ntp1379
Rp1380
(dp1381
g1147
g1148
sg1149
g1150
sg326
S'c:/marmalade/7.4/s3e/h/std/c++/istream.h'
p1382
sbsS'type_traits.h'
p1383
g300
(g1143
g302
Ntp1384
Rp1385
(dp1386
g1147
g1148
sg1149
g1150
sg326
S'c:/marmalade/7.4/s3e/h/std/c++/type_traits.h'
p1387
sbsS's3eGameThrive.defines.txt'
p1388
g300
(g1143
g302
Ntp1389
Rp1390
(dp1391
g1147
g1011
sg1149
(lp1392
g1003
ag1005
ag1007
asg326
g1009
sbsS'cwchar'
p1393
g300
(g1143
g302
Ntp1394
Rp1395
(dp1396
g1147
g1148
sg1149
g1150
sg326
S'c:/marmalade/7.4/s3e/h/std/c++/cwchar'
p1397
sbsS'stdint.h'
p1398
g300
(g1143
g302
Ntp1399
Rp1400
(dp1401
g1147
g1148
sg1149
g1173
sg326
S'c:/marmalade/7.4/s3e/h/std/stdint.h'
p1402
sbsS'semaphore.h'
p1403
g300
(g1143
g302
Ntp1404
Rp1405
(dp1406
g1147
g1148
sg1149
g1173
sg326
S'c:/marmalade/7.4/s3e/h/std/semaphore.h'
p1407
sbsS'iomanip'
p1408
g300
(g1143
g302
Ntp1409
Rp1410
(dp1411
g1147
g1148
sg1149
g1150
sg326
S'c:/marmalade/7.4/s3e/h/std/c++/iomanip'
p1412
sbsS'gl2.h'
p1413
g300
(g1143
g302
Ntp1414
Rp1415
(dp1416
g1147
g1148
sg1149
(lp1417
g1151
aS'GL'
p1418
aS'GLES 2.0'
p1419
asg326
S'c:/marmalade/7.4/s3e/h/GLES2/gl2.h'
p1420
sbsS'assert.h'
p1421
g300
(g1143
g302
Ntp1422
Rp1423
(dp1424
g1147
g1148
sg1149
g1173
sg326
S'c:/marmalade/7.4/s3e/h/std/assert.h'
p1425
sbsS'param.h'
p1426
g300
(g1143
g302
Ntp1427
Rp1428
(dp1429
g1147
g1148
sg1149
g1342
sg326
S'c:/marmalade/7.4/s3e/h/std/sys/param.h'
p1430
sbsS'dir.h'
p1431
g300
(g1143
g302
Ntp1432
Rp1433
(dp1434
g1147
g1148
sg1149
g1342
sg326
S'c:/marmalade/7.4/s3e/h/std/sys/dir.h'
p1435
sbsS'new'
p1436
g300
(g1143
g302
Ntp1437
Rp1438
(dp1439
g1147
g1148
sg1149
g1150
sg326
S'c:/marmalade/7.4/s3e/h/std/c++/new'
p1440
sbsS'IwDivide.h'
p1441
g300
(g1143
g302
Ntp1442
Rp1443
(dp1444
g1147
g1025
sg1149
g1159
sg326
g1086
sbsS'locale.h'
p1445
g300
(g1143
g302
Ntp1446
Rp1447
(dp1448
g1147
g1148
sg1149
g1173
sg326
S'c:/marmalade/7.4/s3e/h/std/locale.h'
p1449
sbsS'IwManagedList.h'
p1450
g300
(g1143
g302
Ntp1451
Rp1452
(dp1453
g1147
g1025
sg1149
g1159
sg326
g1052
sbsS's3eGameThrive_interface.cpp'
p1454
g300
(g1143
g302
Ntp1455
Rp1456
(dp1457
g1147
g1011
sg1149
g1392
sg326
g1012
sbsS'ostream'
p1458
g300
(g1143
g302
Ntp1459
Rp1460
(dp1461
g1147
g1148
sg1149
g1150
sg326
S'c:/marmalade/7.4/s3e/h/std/c++/ostream'
p1462
sbsS'termios.h'
p1463
g300
(g1143
g302
Ntp1464
Rp1465
(dp1466
g1147
g1148
sg1149
g1173
sg326
S'c:/marmalade/7.4/s3e/h/std/termios.h'
p1467
sbsS'cwctype'
p1468
g300
(g1143
g302
Ntp1469
Rp1470
(dp1471
g1147
g1148
sg1149
g1150
sg326
S'c:/marmalade/7.4/s3e/h/std/c++/cwctype'
p1472
sbsS's3ePointer.h'
p1473
g300
(g1143
g302
Ntp1474
Rp1475
(dp1476
g1147
g1148
sg1149
g1195
sg326
S'c:/marmalade/7.4/s3e/h/s3ePointer.h'
p1477
sbsS'IwManaged.h'
p1478
g300
(g1143
g302
Ntp1479
Rp1480
(dp1481
g1147
g1025
sg1149
g1159
sg326
g1094
sbsS'stdiostream.h'
p1482
g300
(g1143
g302
Ntp1483
Rp1484
(dp1485
g1147
g1148
sg1149
g1150
sg326
S'c:/marmalade/7.4/s3e/h/std/c++/stdiostream.h'
p1486
sbsS'sstream'
p1487
g300
(g1143
g302
Ntp1488
Rp1489
(dp1490
g1147
g1148
sg1149
g1150
sg326
S'c:/marmalade/7.4/s3e/h/std/c++/sstream'
p1491
sbsS'alloca.h'
p1492
g300
(g1143
g302
Ntp1493
Rp1494
(dp1495
g1147
g1148
sg1149
g1173
sg326
S'c:/marmalade/7.4/s3e/h/std/alloca.h'
p1496
sbsS'jerror.h'
p1497
g300
(g1143
g302
Ntp1498
Rp1499
(dp1500
g1147
g968
sg1149
g1296
sg326
g966
sbsS's3eCompass.h'
p1501
g300
(g1143
g302
Ntp1502
Rp1503
(dp1504
g1147
g1148
sg1149
g1195
sg326
S'c:/marmalade/7.4/s3e/h/s3eCompass.h'
p1505
sbsS'prctl.h'
p1506
g300
(g1143
g302
Ntp1507
Rp1508
(dp1509
g1147
g1148
sg1149
g1342
sg326
S'c:/marmalade/7.4/s3e/h/std/sys/prctl.h'
p1510
sbsS'netdb.h'
p1511
g300
(g1143
g302
Ntp1512
Rp1513
(dp1514
g1147
g1148
sg1149
g1173
sg326
S'c:/marmalade/7.4/s3e/h/std/netdb.h'
p1515
sbsS's3eOSExec.h'
p1516
g300
(g1143
g302
Ntp1517
Rp1518
(dp1519
g1147
g1148
sg1149
g1311
sg326
S'c:/marmalade/7.4/s3e/h/ext/s3eOSExec.h'
p1520
sbsS'locale'
p1521
g300
(g1143
g302
Ntp1522
Rp1523
(dp1524
g1147
g1148
sg1149
g1150
sg326
S'c:/marmalade/7.4/s3e/h/std/c++/locale'
p1525
sbsS'zconf.h'
p1526
g300
(g1143
g302
Ntp1527
Rp1528
(dp1529
g1147
g1130
sg1149
(lp1530
g1125
ag953
asg326
g1128
sbsS'cderror.h'
p1531
g300
(g1143
g302
Ntp1532
Rp1533
(dp1534
g1147
g968
sg1149
g1296
sg326
g983
sbsS'climits'
p1535
g300
(g1143
g302
Ntp1536
Rp1537
(dp1538
g1147
g1148
sg1149
g1150
sg326
S'c:/marmalade/7.4/s3e/h/std/c++/climits'
p1539
sbsS's3e.config.txt'
p1540
g300
(g1143
g302
Ntp1541
Rp1542
(dp1543
g1147
g1148
sg1149
g1195
sg326
S'c:/marmalade/7.4/s3e/s3e.config.txt'
p1544
sbsS'numeric'
p1545
g300
(g1143
g302
Ntp1546
Rp1547
(dp1548
g1147
g1148
sg1149
g1150
sg326
S'c:/marmalade/7.4/s3e/h/std/c++/numeric'
p1549
sbsS'utime.h'
p1550
g300
(g1143
g302
Ntp1551
Rp1552
(dp1553
g1147
g1148
sg1149
g1173
sg326
S'c:/marmalade/7.4/s3e/h/std/utime.h'
p1554
sbsS'cdjpeg.h'
p1555
g300
(g1143
g302
Ntp1556
Rp1557
(dp1558
g1147
g968
sg1149
g1296
sg326
g975
sbsS'cstdio'
p1559
g300
(g1143
g302
Ntp1560
Rp1561
(dp1562
g1147
g1148
sg1149
g1150
sg326
S'c:/marmalade/7.4/s3e/h/std/c++/cstdio'
p1563
sbsS's3eVibra.h'
p1564
g300
(g1143
g302
Ntp1565
Rp1566
(dp1567
g1147
g1148
sg1149
g1195
sg326
S'c:/marmalade/7.4/s3e/h/s3eVibra.h'
p1568
sbsS'jversion.h'
p1569
g300
(g1143
g302
Ntp1570
Rp1571
(dp1572
g1147
g968
sg1149
g1296
sg326
g987
sbsS'fnmatch.h'
p1573
g300
(g1143
g302
Ntp1574
Rp1575
(dp1576
g1147
g1148
sg1149
g1173
sg326
S'c:/marmalade/7.4/s3e/h/std/fnmatch.h'
p1577
sbsS'jdhuff.h'
p1578
g300
(g1143
g302
Ntp1579
Rp1580
(dp1581
g1147
g968
sg1149
g1296
sg326
g991
sbsS'stack'
p1582
g300
(g1143
g302
Ntp1583
Rp1584
(dp1585
g1147
g1148
sg1149
g1150
sg326
S'c:/marmalade/7.4/s3e/h/std/c++/stack'
p1586
sbsS'sendfile.h'
p1587
g300
(g1143
g302
Ntp1588
Rp1589
(dp1590
g1147
g1148
sg1149
g1342
sg326
S'c:/marmalade/7.4/s3e/h/std/sys/sendfile.h'
p1591
sbsS'strings.h'
p1592
g300
(g1143
g302
Ntp1593
Rp1594
(dp1595
g1147
g1148
sg1149
g1173
sg326
S'c:/marmalade/7.4/s3e/h/std/strings.h'
p1596
sbsS'inttypes.h'
p1597
g300
(g1143
g302
Ntp1598
Rp1599
(dp1600
g1147
g1148
sg1149
g1173
sg326
S'c:/marmalade/7.4/s3e/h/std/inttypes.h'
p1601
sbsS's3eAudio.h'
p1602
g300
(g1143
g302
Ntp1603
Rp1604
(dp1605
g1147
g1148
sg1149
g1195
sg326
S'c:/marmalade/7.4/s3e/h/s3eAudio.h'
p1606
sbsS'gl.h'
p1607
g300
(g1143
g302
Ntp1608
Rp1609
(dp1610
g1147
g1148
sg1149
(lp1611
g1151
aS'GL'
p1612
aS'GLES 1.x'
p1613
asg326
S'c:/marmalade/7.4/s3e/h/GLES/gl.h'
p1614
sbsS'IwImage.h'
p1615
g300
(g1143
g302
Ntp1616
Rp1617
(dp1618
g1147
g1025
sg1149
g1159
sg326
g1080
sbsS's3eImagePicker.h'
p1619
g300
(g1143
g302
Ntp1620
Rp1621
(dp1622
g1147
g1148
sg1149
g1311
sg326
S'c:/marmalade/7.4/s3e/h/ext/s3eImagePicker.h'
p1623
sbsS's3eExt.h'
p1624
g300
(g1143
g302
Ntp1625
Rp1626
(dp1627
g1147
g1148
sg1149
g1195
sg326
S'c:/marmalade/7.4/s3e/h/s3eExt.h'
p1628
sbsS'transupp.h'
p1629
g300
(g1143
g302
Ntp1630
Rp1631
(dp1632
g1147
g968
sg1149
g1296
sg326
g989
sbsS'IwMath.h'
p1633
g300
(g1143
g302
Ntp1634
Rp1635
(dp1636
g1147
g1025
sg1149
g1159
sg326
g1100
sbsS's3eSurface.h'
p1637
g300
(g1143
g302
Ntp1638
Rp1639
(dp1640
g1147
g1148
sg1149
g1195
sg326
S'c:/marmalade/7.4/s3e/h/s3eSurface.h'
p1641
sbsS'time.h'
p1642
g300
(g1143
g302
Ntp1643
Rp1644
(dp1645
g1147
g1148
sg1149
g1173
sg326
S'c:/marmalade/7.4/s3e/h/std/time.h'
p1646
sbsS'stdlib.h'
p1647
g300
(g1143
g302
Ntp1648
Rp1649
(dp1650
g1147
g1148
sg1149
g1173
sg326
S'c:/marmalade/7.4/s3e/h/std/stdlib.h'
p1651
sbsS'gl3ext.h'
p1652
g300
(g1143
g302
Ntp1653
Rp1654
(dp1655
g1147
g1148
sg1149
(lp1656
g1151
aS'GL'
p1657
aS'GLES 3.0'
p1658
asg326
S'c:/marmalade/7.4/s3e/h/GLES3/gl3ext.h'
p1659
sbsS'stddef.h'
p1660
g300
(g1143
g302
Ntp1661
Rp1662
(dp1663
g1147
g1148
sg1149
g1173
sg326
S'c:/marmalade/7.4/s3e/h/std/stddef.h'
p1664
sbsS's3eWindow.h'
p1665
g300
(g1143
g302
Ntp1666
Rp1667
(dp1668
g1147
g1148
sg1149
g1311
sg326
S'c:/marmalade/7.4/s3e/h/ext/s3eWindow.h'
p1669
sbsS's3eMetrics.h'
p1670
g300
(g1143
g302
Ntp1671
Rp1672
(dp1673
g1147
g1148
sg1149
g1311
sg326
S'c:/marmalade/7.4/s3e/h/ext/s3eMetrics.h'
p1674
sbsS'IwCopyingPtr.h'
p1675
g300
(g1143
g302
Ntp1676
Rp1677
(dp1678
g1147
g1025
sg1149
g1159
sg326
g1030
sbsS'IwBuffer.h'
p1679
g300
(g1143
g302
Ntp1680
Rp1681
(dp1682
g1147
g1025
sg1149
g1159
sg326
g1036
sbsS'app.config.txt'
p1683
g300
(g1143
g302
Ntp1684
Rp1685
(dp1686
g1147
(dp1687
sg1149
g4
sg326
S'c:/Users/Kasten/Documents/GameThrive/SDK/Marmalade/GameThriveExample/data/app.config.txt'
p1688
sbsS'iostream'
p1689
g300
(g1143
g302
Ntp1690
Rp1691
(dp1692
g1147
g1148
sg1149
g1150
sg326
S'c:/marmalade/7.4/s3e/h/std/c++/iostream'
p1693
sbsS'png.h'
p1694
g300
(g1143
g302
Ntp1695
Rp1696
(dp1697
g1147
g957
sg1149
(lp1698
g951
ag953
asg326
g955
sbsS'glplatform.h'
p1699
g300
(g1143
g302
Ntp1700
Rp1701
(dp1702
g1147
g1148
sg1149
g1611
sg326
S'c:/marmalade/7.4/s3e/h/GLES/glplatform.h'
p1703
sbsS'app.icf'
p1704
g300
(g1143
g302
Ntp1705
Rp1706
(dp1707
g1147
(dp1708
sg1149
g4
sg326
S'c:/Users/Kasten/Documents/GameThrive/SDK/Marmalade/GameThriveExample/data/app.icf'
p1709
sbsS'ucontext.h'
p1710
g300
(g1143
g302
Ntp1711
Rp1712
(dp1713
g1147
g1148
sg1149
g1173
sg326
S'c:/marmalade/7.4/s3e/h/std/ucontext.h'
p1714
sbsS'setjmp_win32.h'
p1715
g300
(g1143
g302
Ntp1716
Rp1717
(dp1718
g1147
g1148
sg1149
g1173
sg326
S'c:/marmalade/7.4/s3e/h/std/setjmp_win32.h'
p1719
sbsS'unistd.h'
p1720
g300
(g1143
g302
Ntp1721
Rp1722
(dp1723
g1147
g1148
sg1149
g1173
sg326
S'c:/marmalade/7.4/s3e/h/std/unistd.h'
p1724
sbsS's3eSecureStorage.h'
p1725
g300
(g1143
g302
Ntp1726
Rp1727
(dp1728
g1147
g1148
sg1149
g1195
sg326
S'c:/marmalade/7.4/s3e/h/s3eSecureStorage.h'
p1729
sbsS'string.h'
p1730
g300
(g1143
g302
Ntp1731
Rp1732
(dp1733
g1147
g1148
sg1149
g1173
sg326
S'c:/marmalade/7.4/s3e/h/std/string.h'
p1734
sbsS'IwResource.h'
p1735
g300
(g1143
g302
Ntp1736
Rp1737
(dp1738
g1147
g1025
sg1149
g1159
sg326
g1040
sbsS'libjpeg.mkf'
p1739
g300
(g1143
g302
Ntp1740
Rp1741
(dp1742
g1147
g997
sg1149
(lp1743
g963
asg326
g995
sbsS'IwChar.h'
p1744
g300
(g1143
g302
Ntp1745
Rp1746
(dp1747
g1147
g1025
sg1149
g1159
sg326
g1088
sbsS'streambuf.h'
p1748
g300
(g1143
g302
Ntp1749
Rp1750
(dp1751
g1147
g1148
sg1149
g1150
sg326
S'c:/marmalade/7.4/s3e/h/std/c++/streambuf.h'
p1752
sbsS'IwRuntime.h'
p1753
g300
(g1143
g302
Ntp1754
Rp1755
(dp1756
g1147
g1025
sg1149
g1159
sg326
g1070
sbsS'float.h'
p1757
g300
(g1143
g302
Ntp1758
Rp1759
(dp1760
g1147
g1148
sg1149
g1173
sg326
S'c:/marmalade/7.4/s3e/h/std/float.h'
p1761
sbsS'iomanip.h'
p1762
g300
(g1143
g302
Ntp1763
Rp1764
(dp1765
g1147
g1148
sg1149
g1150
sg326
S'c:/marmalade/7.4/s3e/h/std/c++/iomanip.h'
p1766
sbsS'limits'
p1767
g300
(g1143
g302
Ntp1768
Rp1769
(dp1770
g1147
g1148
sg1149
g1150
sg326
S'c:/marmalade/7.4/s3e/h/std/c++/limits'
p1771
sbsS'gl2platform.h'
p1772
g300
(g1143
g302
Ntp1773
Rp1774
(dp1775
g1147
g1148
sg1149
g1417
sg326
S'c:/marmalade/7.4/s3e/h/GLES2/gl2platform.h'
p1776
sbsS'fstream'
p1777
g300
(g1143
g302
Ntp1778
Rp1779
(dp1780
g1147
g1148
sg1149
g1150
sg326
S'c:/marmalade/7.4/s3e/h/std/c++/fstream'
p1781
sbsS'queue'
p1782
g300
(g1143
g302
Ntp1783
Rp1784
(dp1785
g1147
g1148
sg1149
g1150
sg326
S'c:/marmalade/7.4/s3e/h/std/c++/queue'
p1786
sbsS'wchar.h'
p1787
g300
(g1143
g302
Ntp1788
Rp1789
(dp1790
g1147
g1148
sg1149
g1173
sg326
S'c:/marmalade/7.4/s3e/h/std/wchar.h'
p1791
sbsS's3eContacts.h'
p1792
g300
(g1143
g302
Ntp1793
Rp1794
(dp1795
g1147
g1148
sg1149
g1195
sg326
S'c:/marmalade/7.4/s3e/h/s3eContacts.h'
p1796
sbsS'IwKeymap.h'
p1797
g300
(g1143
g302
Ntp1798
Rp1799
(dp1800
g1147
g1025
sg1149
g1159
sg326
g1038
sbsS'IwDebug.h'
p1801
g300
(g1143
g302
Ntp1802
Rp1803
(dp1804
g1147
g1025
sg1149
g1159
sg326
g1032
sbsS'IwVariableBitField.h'
p1805
g300
(g1143
g302
Ntp1806
Rp1807
(dp1808
g1147
g1025
sg1149
g1159
sg326
g1034
sbsS's3eCameraCapture.h'
p1809
g300
(g1143
g302
Ntp1810
Rp1811
(dp1812
g1147
g1148
sg1149
g1311
sg326
S'c:/marmalade/7.4/s3e/h/ext/s3eCameraCapture.h'
p1813
sbsS'eglext.h'
p1814
g300
(g1143
g302
Ntp1815
Rp1816
(dp1817
g1147
g1148
sg1149
(lp1818
g1151
aS'GL'
p1819
aS'EGL'
p1820
asg326
S'c:/marmalade/7.4/s3e/h/EGL/eglext.h'
p1821
sbsS'time_1.h'
p1822
g300
(g1143
g302
Ntp1823
Rp1824
(dp1825
g1147
g1148
sg1149
g1342
sg326
S'c:/marmalade/7.4/s3e/h/std/sys/time.h'
p1826
sbsS'IwTextParser.h'
p1827
g300
(g1143
g302
Ntp1828
Rp1829
(dp1830
g1147
g1025
sg1149
g1159
sg326
g1023
sbsS'IwDivTable.h'
p1831
g300
(g1143
g302
Ntp1832
Rp1833
(dp1834
g1147
g1025
sg1149
g1159
sg326
g1121
sbsS's3eTimer.h'
p1835
g300
(g1143
g302
Ntp1836
Rp1837
(dp1838
g1147
g1148
sg1149
g1195
sg326
S'c:/marmalade/7.4/s3e/h/s3eTimer.h'
p1839
sbsS'socket.h'
p1840
g300
(g1143
g302
Ntp1841
Rp1842
(dp1843
g1147
g1148
sg1149
g1342
sg326
S'c:/marmalade/7.4/s3e/h/std/sys/socket.h'
p1844
sbsS'IwSerialise.h'
p1845
g300
(g1143
g302
Ntp1846
Rp1847
(dp1848
g1147
g1025
sg1149
g1159
sg326
g1056
sbsS'malloc.h'
p1849
g300
(g1143
g302
Ntp1850
Rp1851
(dp1852
g1147
g1148
sg1149
g1173
sg326
S'c:/marmalade/7.4/s3e/h/std/malloc.h'
p1853
sbsS'signal_1.h'
p1854
g300
(g1143
g302
Ntp1855
Rp1856
(dp1857
g1147
g1148
sg1149
g1342
sg326
S'c:/marmalade/7.4/s3e/h/std/sys/signal.h'
p1858
sbsS'cstdarg'
p1859
g300
(g1143
g302
Ntp1860
Rp1861
(dp1862
g1147
g1148
sg1149
g1150
sg326
S'c:/marmalade/7.4/s3e/h/std/c++/cstdarg'
p1863
sbsS'typeinfo'
p1864
g300
(g1143
g302
Ntp1865
Rp1866
(dp1867
g1147
g1148
sg1149
g1150
sg326
S'c:/marmalade/7.4/s3e/h/std/c++/typeinfo'
p1868
sbsS'stdarg.h'
p1869
g300
(g1143
g302
Ntp1870
Rp1871
(dp1872
g1147
g1148
sg1149
g1173
sg326
S'c:/marmalade/7.4/s3e/h/std/stdarg.h'
p1873
sbsS'strstream.h'
p1874
g300
(g1143
g302
Ntp1875
Rp1876
(dp1877
g1147
g1148
sg1149
g1150
sg326
S'c:/marmalade/7.4/s3e/h/std/c++/strstream.h'
p1878
sbsS'shm.h'
p1879
g300
(g1143
g302
Ntp1880
Rp1881
(dp1882
g1147
g1148
sg1149
g1342
sg326
S'c:/marmalade/7.4/s3e/h/std/sys/shm.h'
p1883
sbsS'jpegint.h'
p1884
g300
(g1143
g302
Ntp1885
Rp1886
(dp1887
g1147
g968
sg1149
g1296
sg326
g971
sbsS'set'
p1888
g300
(g1143
g302
Ntp1889
Rp1890
(dp1891
g1147
g1148
sg1149
g1150
sg326
S'c:/marmalade/7.4/s3e/h/std/c++/set'
p1892
sbsS'endian.h'
p1893
g300
(g1143
g302
Ntp1894
Rp1895
(dp1896
g1147
g1148
sg1149
g1173
sg326
S'c:/marmalade/7.4/s3e/h/std/endian.h'
p1897
sbsS'gl2ext.h'
p1898
g300
(g1143
g302
Ntp1899
Rp1900
(dp1901
g1147
g1148
sg1149
g1417
sg326
S'c:/marmalade/7.4/s3e/h/GLES2/gl2ext.h'
p1902
sbsS'setjmp.h'
p1903
g300
(g1143
g302
Ntp1904
Rp1905
(dp1906
g1147
g1148
sg1149
g1173
sg326
S'c:/marmalade/7.4/s3e/h/std/setjmp.h'
p1907
sbsS'mem.h'
p1908
g300
(g1143
g302
Ntp1909
Rp1910
(dp1911
g1147
g1148
sg1149
g1150
sg326
S'c:/marmalade/7.4/s3e/h/std/c++/mem.h'
p1912
sbsS'un.h'
p1913
g300
(g1143
g302
Ntp1914
Rp1915
(dp1916
g1147
g1148
sg1149
g1342
sg326
S'c:/marmalade/7.4/s3e/h/std/sys/un.h'
p1917
sbsS'temp_defines_debug.h'
p1918
g300
(g1143
g302
Ntp1919
Rp1920
(dp1921
g1147
(lp1922
sg1149
(lp1923
S"'generated files'"
p1924
asg326
S'c:/Users/Kasten/Documents/GameThrive/SDK/Marmalade/GameThriveExample/build_gamethriveexample_vc12/temp_defines_debug.h'
p1925
sbsS's3eCompression.h'
p1926
g300
(g1143
g302
Ntp1927
Rp1928
(dp1929
g1147
g1148
sg1149
g1195
sg326
S'c:/marmalade/7.4/s3e/h/s3eCompression.h'
p1930
sbsS's3eSound.h'
p1931
g300
(g1143
g302
Ntp1932
Rp1933
(dp1934
g1147
g1148
sg1149
g1195
sg326
S'c:/marmalade/7.4/s3e/h/s3eSound.h'
p1935
sbsS'glob.h'
p1936
g300
(g1143
g302
Ntp1937
Rp1938
(dp1939
g1147
g1148
sg1149
g1173
sg326
S'c:/marmalade/7.4/s3e/h/std/glob.h'
p1940
sbsS'IwClassFactory.h'
p1941
g300
(g1143
g302
Ntp1942
Rp1943
(dp1944
g1147
g1025
sg1149
g1159
sg326
g1058
sbsS'file.h'
p1945
g300
(g1143
g302
Ntp1946
Rp1947
(dp1948
g1147
g1148
sg1149
g1342
sg326
S'c:/marmalade/7.4/s3e/h/std/sys/file.h'
p1949
sbsS's3eIOSBackgroundAudio.h'
p1950
g300
(g1143
g302
Ntp1951
Rp1952
(dp1953
g1147
g1148
sg1149
g1311
sg326
S'c:/marmalade/7.4/s3e/h/ext/s3eIOSBackgroundAudio.h'
p1954
sbsS'IwOptimiseThumb.h'
p1955
g300
(g1143
g302
Ntp1956
Rp1957
(dp1958
g1147
g1025
sg1149
g1159
sg326
g1113
sbsS'cstring'
p1959
g300
(g1143
g302
Ntp1960
Rp1961
(dp1962
g1147
g1148
sg1149
g1150
sg326
S'c:/marmalade/7.4/s3e/h/std/c++/cstring'
p1963
sbsS'exception.h'
p1964
g300
(g1143
g302
Ntp1965
Rp1966
(dp1967
g1147
g1148
sg1149
g1150
sg326
S'c:/marmalade/7.4/s3e/h/std/c++/exception.h'
p1968
sbsS's3eCamera.h'
p1969
g300
(g1143
g302
Ntp1970
Rp1971
(dp1972
g1147
g1148
sg1149
g1195
sg326
S'c:/marmalade/7.4/s3e/h/s3eCamera.h'
p1973
sbsS'jconfig.h'
p1974
g300
(g1143
g302
Ntp1975
Rp1976
(dp1977
g1147
g968
sg1149
g1296
sg326
g979
sbsS'clocale'
p1978
g300
(g1143
g302
Ntp1979
Rp1980
(dp1981
g1147
g1148
sg1149
g1150
sg326
S'c:/marmalade/7.4/s3e/h/std/c++/clocale'
p1982
sbsS'memory'
p1983
g300
(g1143
g302
Ntp1984
Rp1985
(dp1986
g1147
g1148
sg1149
g1150
sg326
S'c:/marmalade/7.4/s3e/h/std/c++/memory'
p1987
sbsS'egl.h'
p1988
g300
(g1143
g302
Ntp1989
Rp1990
(dp1991
g1147
g1148
sg1149
g1818
sg326
S'c:/marmalade/7.4/s3e/h/EGL/egl.h'
p1992
sbsS'egl_1.h'
p1993
g300
(g1143
g302
Ntp1994
Rp1995
(dp1996
g1147
g1148
sg1149
g1611
sg326
S'c:/marmalade/7.4/s3e/h/GLES/egl.h'
p1997
sbsS'IwMemManagerDL.h'
p1998
g300
(g1143
g302
Ntp1999
Rp2000
(dp2001
g1147
g1025
sg1149
g1159
sg326
g1119
sbsS'iwutil.config.txt'
p2002
g300
(g1143
g302
Ntp2003
Rp2004
(dp2005
g1147
g1025
sg1149
g1159
sg326
g1064
sbsS'vector'
p2006
g300
(g1143
g302
Ntp2007
Rp2008
(dp2009
g1147
g1148
sg1149
g1150
sg326
S'c:/marmalade/7.4/s3e/h/std/c++/vector'
p2010
sbsS'deque'
p2011
g300
(g1143
g302
Ntp2012
Rp2013
(dp2014
g1147
g1148
sg1149
g1150
sg326
S'c:/marmalade/7.4/s3e/h/std/c++/deque'
p2015
sbsS'IwString.h'
p2016
g300
(g1143
g302
Ntp2017
Rp2018
(dp2019
g1147
g1025
sg1149
g1159
sg326
g1104
sbsS's3eCrypto.h'
p2020
g300
(g1143
g302
Ntp2021
Rp2022
(dp2023
g1147
g1148
sg1149
g1195
sg326
S'c:/marmalade/7.4/s3e/h/s3eCrypto.h'
p2024
sbsS'zlib.h'
p2025
g300
(g1143
g302
Ntp2026
Rp2027
(dp2028
g1147
g1130
sg1149
g1530
sg326
g1131
sbsS's3eSMS.h'
p2029
g300
(g1143
g302
Ntp2030
Rp2031
(dp2032
g1147
g1148
sg1149
g1311
sg326
S'c:/marmalade/7.4/s3e/h/ext/s3eSMS.h'
p2033
sbsS'cctype'
p2034
g300
(g1143
g302
Ntp2035
Rp2036
(dp2037
g1147
g1148
sg1149
g1150
sg326
S'c:/marmalade/7.4/s3e/h/std/c++/cctype'
p2038
sbsS'limits.h'
p2039
g300
(g1143
g302
Ntp2040
Rp2041
(dp2042
g1147
g1148
sg1149
g1173
sg326
S'c:/marmalade/7.4/s3e/h/std/limits.h'
p2043
sbsS'stdexcept'
p2044
g300
(g1143
g302
Ntp2045
Rp2046
(dp2047
g1147
g1148
sg1149
g1150
sg326
S'c:/marmalade/7.4/s3e/h/std/c++/stdexcept'
p2048
sbsS'fcntl.h'
p2049
g300
(g1143
g302
Ntp2050
Rp2051
(dp2052
g1147
g1148
sg1149
g1173
sg326
S'c:/marmalade/7.4/s3e/h/std/fcntl.h'
p2053
sbsS'sigcontext.h'
p2054
g300
(g1143
g302
Ntp2055
Rp2056
(dp2057
g1147
g1148
sg1149
g1173
sg326
S'c:/marmalade/7.4/s3e/h/std/sigcontext.h'
p2058
sbsS'iwutil.mkf'
p2059
g300
(g1143
g302
Ntp2060
Rp2061
(dp2062
g1147
g1108
sg1149
g1159
sg326
g1106
sbsS'csignal'
p2063
g300
(g1143
g302
Ntp2064
Rp2065
(dp2066
g1147
g1148
sg1149
g1150
sg326
S'c:/marmalade/7.4/s3e/h/std/c++/csignal'
p2067
sbsS'ostream.h'
p2068
g300
(g1143
g302
Ntp2069
Rp2070
(dp2071
g1147
g1148
sg1149
g1150
sg326
S'c:/marmalade/7.4/s3e/h/std/c++/ostream.h'
p2072
sbsS'types.h'
p2073
g300
(g1143
g302
Ntp2074
Rp2075
(dp2076
g1147
g1148
sg1149
g1342
sg326
S'c:/marmalade/7.4/s3e/h/std/sys/types.h'
p2077
sbsS'pthread_types.h'
p2078
g300
(g1143
g302
Ntp2079
Rp2080
(dp2081
g1147
g1148
sg1149
g1173
sg326
S'c:/marmalade/7.4/s3e/h/std/pthread_types.h'
p2082
sbsS'ifaddrs.h'
p2083
g300
(g1143
g302
Ntp2084
Rp2085
(dp2086
g1147
g1148
sg1149
g1173
sg326
S'c:/marmalade/7.4/s3e/h/std/ifaddrs.h'
p2087
sbsS'memory.h'
p2088
g300
(g1143
g302
Ntp2089
Rp2090
(dp2091
g1147
g1148
sg1149
g1173
sg326
S'c:/marmalade/7.4/s3e/h/std/memory.h'
p2092
sbsS'GameThriveExample.cpp'
p2093
g300
(g1143
g302
Ntp2094
Rp2095
(dp2096
g1147
g1002
sg1149
(lp2097
g998
asg326
g1000
sbsS'getopt.h'
p2098
g300
(g1143
g302
Ntp2099
Rp2100
(dp2101
g1147
g1148
sg1149
g1173
sg326
S'c:/marmalade/7.4/s3e/h/std/getopt.h'
p2102
sbsS'cmath'
p2103
g300
(g1143
g302
Ntp2104
Rp2105
(dp2106
g1147
g1148
sg1149
g1150
sg326
S'c:/marmalade/7.4/s3e/h/std/c++/cmath'
p2107
sbsS'strstream'
p2108
g300
(g1143
g302
Ntp2109
Rp2110
(dp2111
g1147
g1148
sg1149
g1150
sg326
S'c:/marmalade/7.4/s3e/h/std/c++/strstream'
p2112
sbsS'IwOptimiseARM.h'
p2113
g300
(g1143
g302
Ntp2114
Rp2115
(dp2116
g1147
g1025
sg1149
g1159
sg326
g1078
sbsS'times.h'
p2117
g300
(g1143
g302
Ntp2118
Rp2119
(dp2120
g1147
g1148
sg1149
g1342
sg326
S'c:/marmalade/7.4/s3e/h/std/sys/times.h'
p2121
sbsS'exception'
p2122
g300
(g1143
g302
Ntp2123
Rp2124
(dp2125
g1147
g1148
sg1149
g1150
sg326
S'c:/marmalade/7.4/s3e/h/std/c++/exception'
p2126
sbsS'pthread.h'
p2127
g300
(g1143
g302
Ntp2128
Rp2129
(dp2130
g1147
g1148
sg1149
g1173
sg326
S'c:/marmalade/7.4/s3e/h/std/pthread.h'
p2131
sbsS'IwTextParserITX.h'
p2132
g300
(g1143
g302
Ntp2133
Rp2134
(dp2135
g1147
g1025
sg1149
g1159
sg326
g1044
sbsS'rlocks.h'
p2136
g300
(g1143
g302
Ntp2137
Rp2138
(dp2139
g1147
g1148
sg1149
g1150
sg326
S'c:/marmalade/7.4/s3e/h/std/c++/rlocks.h'
p2140
sbsS'functional'
p2141
g300
(g1143
g302
Ntp2142
Rp2143
(dp2144
g1147
g1148
sg1149
g1150
sg326
S'c:/marmalade/7.4/s3e/h/std/c++/functional'
p2145
sbsS'ioctl.h'
p2146
g300
(g1143
g302
Ntp2147
Rp2148
(dp2149
g1147
g1148
sg1149
g1342
sg326
S'c:/marmalade/7.4/s3e/h/std/sys/ioctl.h'
p2150
sbsS'rope'
p2151
g300
(g1143
g302
Ntp2152
Rp2153
(dp2154
g1147
g1148
sg1149
g1150
sg326
S'c:/marmalade/7.4/s3e/h/std/c++/rope'
p2155
sbsS's3eAndroidJNI.h'
p2156
g300
(g1143
g302
Ntp2157
Rp2158
(dp2159
g1147
g1148
sg1149
g1311
sg326
S'c:/marmalade/7.4/s3e/h/ext/s3eAndroidJNI.h'
p2160
sbsS'jinclude.h'
p2161
g300
(g1143
g302
Ntp2162
Rp2163
(dp2164
g1147
g968
sg1149
g1296
sg326
g981
sbsS'IwEvent.h'
p2165
g300
(g1143
g302
Ntp2166
Rp2167
(dp2168
g1147
g1025
sg1149
g1159
sg326
g1098
sbsS'IwTypes.h'
p2169
g300
(g1143
g302
Ntp2170
Rp2171
(dp2172
g1147
g1025
sg1149
g1159
sg326
g1060
sbsS's3eSocket.h'
p2173
g300
(g1143
g302
Ntp2174
Rp2175
(dp2176
g1147
g1148
sg1149
g1195
sg326
S'c:/marmalade/7.4/s3e/h/s3eSocket.h'
p2177
sbsS'IwOptimiseSize.h'
p2178
g300
(g1143
g302
Ntp2179
Rp2180
(dp2181
g1147
g1025
sg1149
g1159
sg326
g1123
sbsS'IwAutoFile.h'
p2182
g300
(g1143
g302
Ntp2183
Rp2184
(dp2185
g1147
g1025
sg1149
g1159
sg326
g1102
sbsS'iconv.h'
p2186
g300
(g1143
g302
Ntp2187
Rp2188
(dp2189
g1147
g1148
sg1149
g1173
sg326
S'c:/marmalade/7.4/s3e/h/std/iconv.h'
p2190
sbsS'ipc.h'
p2191
g300
(g1143
g302
Ntp2192
Rp2193
(dp2194
g1147
g1148
sg1149
g1342
sg326
S'c:/marmalade/7.4/s3e/h/std/sys/ipc.h'
p2195
sbsS's3eDevice.h'
p2196
g300
(g1143
g302
Ntp2197
Rp2198
(dp2199
g1147
g1148
sg1149
g1195
sg326
S'c:/marmalade/7.4/s3e/h/s3eDevice.h'
p2200
sbsS'poll_1.h'
p2201
g300
(g1143
g302
Ntp2202
Rp2203
(dp2204
g1147
g1148
sg1149
g1342
sg326
S'c:/marmalade/7.4/s3e/h/std/sys/poll.h'
p2205
sbsS's3eThread.h'
p2206
g300
(g1143
g302
Ntp2207
Rp2208
(dp2209
g1147
g1148
sg1149
g1195
sg326
S'c:/marmalade/7.4/s3e/h/s3eThread.h'
p2210
sbsS'stl_user_config.h'
p2211
g300
(g1143
g302
Ntp2212
Rp2213
(dp2214
g1147
g1148
sg1149
g1150
sg326
S'c:/marmalade/7.4/s3e/h/std/c++/stl_user_config.h'
p2215
sbsS'IwList.h'
p2216
g300
(g1143
g302
Ntp2217
Rp2218
(dp2219
g1147
g1025
sg1149
g1159
sg326
g1054
sbsS'langinfo.h'
p2220
g300
(g1143
g302
Ntp2221
Rp2222
(dp2223
g1147
g1148
sg1149
g1173
sg326
S'c:/marmalade/7.4/s3e/h/std/langinfo.h'
p2224
sbsS's3edebugHeap.h'
p2225
g300
(g1143
g302
Ntp2226
Rp2227
(dp2228
g1147
g1148
sg1149
g1311
sg326
S'c:/marmalade/7.4/s3e/h/ext/s3edebugHeap.h'
p2229
sbsS'jdct.h'
p2230
g300
(g1143
g302
Ntp2231
Rp2232
(dp2233
g1147
g968
sg1149
g1296
sg326
g985
sbsS'AirplayVersion.h'
p2234
g300
(g1143
g302
Ntp2235
Rp2236
(dp2237
g1147
g1148
sg1149
g1195
sg326
S'c:/marmalade/7.4/s3e/h/AirplayVersion.h'
p2238
sbsS'jchuff.h'
p2239
g300
(g1143
g302
Ntp2240
Rp2241
(dp2242
g1147
g968
sg1149
g1296
sg326
g977
sbsS'IwProfileMenu.h'
p2243
g300
(g1143
g302
Ntp2244
Rp2245
(dp2246
g1147
g1025
sg1149
g1159
sg326
g1050
sbsS's3eSoundRecord.h'
p2247
g300
(g1143
g302
Ntp2248
Rp2249
(dp2250
g1147
g1148
sg1149
g1195
sg326
S'c:/marmalade/7.4/s3e/h/s3eSoundRecord.h'
p2251
sbsS'gl2extimg.h'
p2252
g300
(g1143
g302
Ntp2253
Rp2254
(dp2255
g1147
g1148
sg1149
g1417
sg326
S'c:/marmalade/7.4/s3e/h/GLES2/gl2extimg.h'
p2256
sbsS'IwFibre.h'
p2257
g300
(g1143
g302
Ntp2258
Rp2259
(dp2260
g1147
g1025
sg1149
g1159
sg326
g1111
sbsS's3eConfig.h'
p2261
g300
(g1143
g302
Ntp2262
Rp2263
(dp2264
g1147
g1148
sg1149
g1195
sg326
S'c:/marmalade/7.4/s3e/h/s3eConfig.h'
p2265
sbsS'IwHashString.h'
p2266
g300
(g1143
g302
Ntp2267
Rp2268
(dp2269
g1147
g1025
sg1149
g1159
sg326
g1048
sbsS'stat.h'
p2270
g300
(g1143
g302
Ntp2271
Rp2272
(dp2273
g1147
g1148
sg1149
g1342
sg326
S'c:/marmalade/7.4/s3e/h/std/sys/stat.h'
p2274
sbsS's3eVersion.h'
p2275
g300
(g1143
g302
Ntp2276
Rp2277
(dp2278
g1147
g1148
sg1149
g1195
sg326
S'c:/marmalade/7.4/s3e/h/s3eVersion.h'
p2279
sbsS'MarmaladeVersion.h'
p2280
g300
(g1143
g302
Ntp2281
Rp2282
(dp2283
g1147
g1148
sg1149
g1195
sg326
S'c:/marmalade/7.4/s3e/h/MarmaladeVersion.h'
p2284
sbsS'utility'
p2285
g300
(g1143
g302
Ntp2286
Rp2287
(dp2288
g1147
g1148
sg1149
g1150
sg326
S'c:/marmalade/7.4/s3e/h/std/c++/utility'
p2289
sbsS'syslog.h'
p2290
g300
(g1143
g302
Ntp2291
Rp2292
(dp2293
g1147
g1148
sg1149
g1173
sg326
S'c:/marmalade/7.4/s3e/h/std/syslog.h'
p2294
sbsS'IwUtilInitTerm.h'
p2295
g300
(g1143
g302
Ntp2296
Rp2297
(dp2298
g1147
g1025
sg1149
g1159
sg326
g1028
sbsS'byteswap.h'
p2299
g300
(g1143
g302
Ntp2300
Rp2301
(dp2302
g1147
g1148
sg1149
g1173
sg326
S'c:/marmalade/7.4/s3e/h/std/byteswap.h'
p2303
sbsS'ios.h'
p2304
g300
(g1143
g302
Ntp2305
Rp2306
(dp2307
g1147
g1148
sg1149
g1150
sg326
S'c:/marmalade/7.4/s3e/h/std/c++/ios.h'
p2308
sbsS'bitset'
p2309
g300
(g1143
g302
Ntp2310
Rp2311
(dp2312
g1147
g1148
sg1149
g1150
sg326
S'c:/marmalade/7.4/s3e/h/std/c++/bitset'
p2313
sbsS'IwImageHelper.h'
p2314
g300
(g1143
g302
Ntp2315
Rp2316
(dp2317
g1147
g1025
sg1149
g1159
sg326
g1082
sbsS's3eKeyboard.h'
p2318
g300
(g1143
g302
Ntp2319
Rp2320
(dp2321
g1147
g1148
sg1149
g1195
sg326
S'c:/marmalade/7.4/s3e/h/s3eKeyboard.h'
p2322
sbsS'pthread_1.h'
p2323
g300
(g1143
g302
Ntp2324
Rp2325
(dp2326
g1147
g1148
sg1149
g1150
sg326
S'c:/marmalade/7.4/s3e/h/std/c++/pthread.h'
p2327
sbsS'IwMemBucket.h'
p2328
g300
(g1143
g302
Ntp2329
Rp2330
(dp2331
g1147
g1025
sg1149
g1159
sg326
g1084
sbsS's3e.mkf'
p2332
g300
(g1143
g302
Ntp2333
Rp2334
(dp2335
g1147
(dp2336
sg1149
g1195
sg326
S'c:/marmalade/7.4/s3e/s3e.mkf'
p2337
sbsS'hash_set'
p2338
g300
(g1143
g302
Ntp2339
Rp2340
(dp2341
g1147
g1148
sg1149
g1150
sg326
S'c:/marmalade/7.4/s3e/h/std/c++/hash_set'
p2342
sbsS's3eTypes.h'
p2343
g300
(g1143
g302
Ntp2344
Rp2345
(dp2346
g1147
g1148
sg1149
g1195
sg326
S'c:/marmalade/7.4/s3e/h/s3eTypes.h'
p2347
sbsS'complex'
p2348
g300
(g1143
g302
Ntp2349
Rp2350
(dp2351
g1147
g1148
sg1149
g1150
sg326
S'c:/marmalade/7.4/s3e/h/std/c++/complex'
p2352
sbsS'jmorecfg.h'
p2353
g300
(g1143
g302
Ntp2354
Rp2355
(dp2356
g1147
g968
sg1149
g1296
sg326
g993
sbsS'eglplatform.h'
p2357
g300
(g1143
g302
Ntp2358
Rp2359
(dp2360
g1147
g1148
sg1149
g1818
sg326
S'c:/marmalade/7.4/s3e/h/EGL/eglplatform.h'
p2361
sbsS'signal_2.h'
p2362
g300
(g1143
g302
Ntp2363
Rp2364
(dp2365
g1147
g1148
sg1149
g1150
sg326
S'c:/marmalade/7.4/s3e/h/std/c++/signal.h'
p2366
sbsS'stdbool.h'
p2367
g300
(g1143
g302
Ntp2368
Rp2369
(dp2370
g1147
g1148
sg1149
g1173
sg326
S'c:/marmalade/7.4/s3e/h/std/stdbool.h'
p2371
sbsS's3e.icf'
p2372
g300
(g1143
g302
Ntp2373
Rp2374
(dp2375
g1147
g1148
sg1149
g1195
sg326
S'c:/marmalade/7.4/s3e/s3e.icf'
p2376
sbsS'math_gcc.h'
p2377
g300
(g1143
g302
Ntp2378
Rp2379
(dp2380
g1147
g1148
sg1149
g1173
sg326
S'c:/marmalade/7.4/s3e/h/std/math_gcc.h'
p2381
sbsS's3eMemory.h'
p2382
g300
(g1143
g302
Ntp2383
Rp2384
(dp2385
g1147
g1148
sg1149
g1195
sg326
S'c:/marmalade/7.4/s3e/h/s3eMemory.h'
p2386
sbsS'map'
p2387
g300
(g1143
g302
Ntp2388
Rp2389
(dp2390
g1147
g1148
sg1149
g1150
sg326
S'c:/marmalade/7.4/s3e/h/std/c++/map'
p2391
sbsS'sem.h'
p2392
g300
(g1143
g302
Ntp2393
Rp2394
(dp2395
g1147
g1148
sg1149
g1342
sg326
S'c:/marmalade/7.4/s3e/h/std/sys/sem.h'
p2396
sbsS'IwOptimiseSpeed.h'
p2397
g300
(g1143
g302
Ntp2398
Rp2399
(dp2400
g1147
g1025
sg1149
g1159
sg326
g1076
sbsS's3eLicense.h'
p2401
g300
(g1143
g302
Ntp2402
Rp2403
(dp2404
g1147
g1148
sg1149
g1195
sg326
S'c:/marmalade/7.4/s3e/h/s3eLicense.h'
p2405
sbsS'stdio.h'
p2406
g300
(g1143
g302
Ntp2407
Rp2408
(dp2409
g1147
g1148
sg1149
g1173
sg326
S'c:/marmalade/7.4/s3e/h/std/stdio.h'
p2410
sbsS's3eFile.h'
p2411
g300
(g1143
g302
Ntp2412
Rp2413
(dp2414
g1147
g1148
sg1149
g1195
sg326
S'c:/marmalade/7.4/s3e/h/s3eFile.h'
p2415
sbsS'jmemsys.h'
p2416
g300
(g1143
g302
Ntp2417
Rp2418
(dp2419
g1147
g968
sg1149
g1296
sg326
g969
sbsS'ios'
p2420
g300
(g1143
g302
Ntp2421
Rp2422
(dp2423
g1147
g1148
sg1149
g1150
sg326
S'c:/marmalade/7.4/s3e/h/std/c++/ios'
p2424
sbsS'gl3platform.h'
p2425
g300
(g1143
g302
Ntp2426
Rp2427
(dp2428
g1147
g1148
sg1149
g1656
sg326
S'c:/marmalade/7.4/s3e/h/GLES3/gl3platform.h'
p2429
sbsS'msl_string.h'
p2430
g300
(g1143
g302
Ntp2431
Rp2432
(dp2433
g1147
g1148
sg1149
g1150
sg326
S'c:/marmalade/7.4/s3e/h/std/c++/msl_string.h'
p2434
sbsS'select.h'
p2435
g300
(g1143
g302
Ntp2436
Rp2437
(dp2438
g1147
g1148
sg1149
g1342
sg326
S'c:/marmalade/7.4/s3e/h/std/sys/select.h'
p2439
sbsS'cerrno'
p2440
g300
(g1143
g302
Ntp2441
Rp2442
(dp2443
g1147
g1148
sg1149
g1150
sg326
S'c:/marmalade/7.4/s3e/h/std/c++/cerrno'
p2444
sbsS'slist'
p2445
g300
(g1143
g302
Ntp2446
Rp2447
(dp2448
g1147
g1148
sg1149
g1150
sg326
S'c:/marmalade/7.4/s3e/h/std/c++/slist'
p2449
sbsS'cstdlib'
p2450
g300
(g1143
g302
Ntp2451
Rp2452
(dp2453
g1147
g1148
sg1149
g1150
sg326
S'c:/marmalade/7.4/s3e/h/std/c++/cstdlib'
p2454
sbsS's3eLocation.h'
p2455
g300
(g1143
g302
Ntp2456
Rp2457
(dp2458
g1147
g1148
sg1149
g1195
sg326
S'c:/marmalade/7.4/s3e/h/s3eLocation.h'
p2459
sbsS'zlib.mkf'
p2460
g300
(g1143
g302
Ntp2461
Rp2462
(dp2463
g1147
g1135
sg1149
(lp2464
g1125
asg326
g1133
sbsS'resource.h'
p2465
g300
(g1143
g302
Ntp2466
Rp2467
(dp2468
g1147
g1148
sg1149
g1342
sg326
S'c:/marmalade/7.4/s3e/h/std/sys/resource.h'
p2469
sbsS'pwd.h'
p2470
g300
(g1143
g302
Ntp2471
Rp2472
(dp2473
g1147
g1148
sg1149
g1173
sg326
S'c:/marmalade/7.4/s3e/h/std/pwd.h'
p2474
sbsS'signal.h'
p2475
g300
(g1143
g302
Ntp2476
Rp2477
(dp2478
g1147
g1148
sg1149
g1173
sg326
S'c:/marmalade/7.4/s3e/h/std/signal.h'
p2479
sbsS's3eGameThrive.h'
p2480
g300
(g1143
g302
Ntp2481
Rp2482
(dp2483
g1147
g1011
sg1149
g1333
sg326
g1014
sbsS'csetjmp'
p2484
g300
(g1143
g302
Ntp2485
Rp2486
(dp2487
g1147
g1148
sg1149
g1150
sg326
S'c:/marmalade/7.4/s3e/h/std/c++/csetjmp'
p2488
sbsS's3eLibrary.h'
p2489
g300
(g1143
g302
Ntp2490
Rp2491
(dp2492
g1147
g1148
sg1149
g1311
sg326
S'c:/marmalade/7.4/s3e/h/ext/s3eLibrary.h'
p2493
sbsS'libpng.mkf'
p2494
g300
(g1143
g302
Ntp2495
Rp2496
(dp2497
g1147
g962
sg1149
(lp2498
g951
asg326
g960
sbsS'algorithm'
p2499
g300
(g1143
g302
Ntp2500
Rp2501
(dp2502
g1147
g1148
sg1149
g1150
sg326
S'c:/marmalade/7.4/s3e/h/std/c++/algorithm'
p2503
sbsS'IwMemBucketHelpers.h'
p2504
g300
(g1143
g302
Ntp2505
Rp2506
(dp2507
g1147
g1025
sg1149
g1159
sg326
g1072
sbsS's3eHash.h'
p2508
g300
(g1143
g302
Ntp2509
Rp2510
(dp2511
g1147
g1148
sg1149
g1195
sg326
S'c:/marmalade/7.4/s3e/h/s3eHash.h'
p2512
sbsS'new.h'
p2513
g300
(g1143
g302
Ntp2514
Rp2515
(dp2516
g1147
g1148
sg1149
g1150
sg326
S'c:/marmalade/7.4/s3e/h/std/c++/new.h'
p2517
sbsS'math.h'
p2518
g300
(g1143
g302
Ntp2519
Rp2520
(dp2521
g1147
g1148
sg1149
g1173
sg326
S'c:/marmalade/7.4/s3e/h/std/math.h'
p2522
sbsS's3eClipboard.h'
p2523
g300
(g1143
g302
Ntp2524
Rp2525
(dp2526
g1147
g1148
sg1149
g1195
sg326
S'c:/marmalade/7.4/s3e/h/s3eClipboard.h'
p2527
sbsS'streambuf'
p2528
g300
(g1143
g302
Ntp2529
Rp2530
(dp2531
g1147
g1148
sg1149
g1150
sg326
S'c:/marmalade/7.4/s3e/h/std/c++/streambuf'
p2532
sbsS's3eDebug.h'
p2533
g300
(g1143
g302
Ntp2534
Rp2535
(dp2536
g1147
g1148
sg1149
g1195
sg326
S'c:/marmalade/7.4/s3e/h/s3eDebug.h'
p2537
sbsS's3eEMail.h'
p2538
g300
(g1143
g302
Ntp2539
Rp2540
(dp2541
g1147
g1148
sg1149
g1311
sg326
S'c:/marmalade/7.4/s3e/h/ext/s3eEMail.h'
p2542
sbsS'uio.h'
p2543
g300
(g1143
g302
Ntp2544
Rp2545
(dp2546
g1147
g1148
sg1149
g1342
sg326
S'c:/marmalade/7.4/s3e/h/std/sys/uio.h'
p2547
sbsS'glext.h'
p2548
g300
(g1143
g302
Ntp2549
Rp2550
(dp2551
g1147
g1148
sg1149
g1611
sg326
S'c:/marmalade/7.4/s3e/h/GLES/glext.h'
p2552
sbsS's3eVideo.h'
p2553
g300
(g1143
g302
Ntp2554
Rp2555
(dp2556
g1147
g1148
sg1149
g1195
sg326
S'c:/marmalade/7.4/s3e/h/s3eVideo.h'
p2557
sbsS'pngconf.h'
p2558
g300
(g1143
g302
Ntp2559
Rp2560
(dp2561
g1147
g957
sg1149
g1698
sg326
g958
sbsS'IwUncopyable.h'
p2562
g300
(g1143
g302
Ntp2563
Rp2564
(dp2565
g1147
g1025
sg1149
g1159
sg326
g1074
sbsS'gl3.h'
p2566
g300
(g1143
g302
Ntp2567
Rp2568
(dp2569
g1147
g1148
sg1149
g1656
sg326
S'c:/marmalade/7.4/s3e/h/GLES3/gl3.h'
p2570
sbsS'typeinfo.h'
p2571
g300
(g1143
g302
Ntp2572
Rp2573
(dp2574
g1147
g1148
sg1149
g1150
sg326
S'c:/marmalade/7.4/s3e/h/std/c++/typeinfo.h'
p2575
sbsS'temp_defines_release.h'
p2576
g300
(g1143
g302
Ntp2577
Rp2578
(dp2579
g1147
(lp2580
sg1149
(lp2581
g1924
asg326
S'c:/Users/Kasten/Documents/GameThrive/SDK/Marmalade/GameThriveExample/build_gamethriveexample_vc12/temp_defines_release.h'
p2582
sbsS'IwMenu.h'
p2583
g300
(g1143
g302
Ntp2584
Rp2585
(dp2586
g1147
g1025
sg1149
g1159
sg326
g1026
sbssS'juice_build_type'
p2587
g4
sS'tests'
p2588
(lp2589
sS'project_name'
p2590
g308
sS'root_file'
p2591
g121
sS'current_root'
p2592
S'c:/Users/Kasten/Documents/GameThrive/SDK/Marmalade/GameThriveExample'
p2593
sS'dependencies'
p2594
(lp2595
sS'include_paths'
p2596
(lp2597
S'c:/users/kasten/documents/gamethrive/sdk/marmalade/s3egamethrive/h'
p2598
aS'c:/marmalade/7.4/modules/iwutil/h'
p2599
aS'c:/marmalade/7.4/modules/third_party/libjpeg/h'
p2600
aS'c:/marmalade/7.4/modules/third_party/zlib/h'
p2601
aS'c:/marmalade/7.4/modules/third_party/libpng/h'
p2602
aS'c:/marmalade/7.4/s3e/h'
p2603
aS'c:/marmalade/7.4/s3e/h/ext'
p2604
aS'c:/marmalade/7.4/s3e/h/std'
p2605
aS'c:/marmalade/7.4/s3e/h/std/c++'
p2606
aS'c:/marmalade/7.4/s3e/h/ext_legacy'
p2607
aS'c:/marmalade/7.4/s3e/h/legacy'
p2608
asS'weak_frameworks'
p2609
(lp2610
sS'extprojects'
p2611
(dp2612
sg477
(dp2613
g471
(lp2614
(g79
S'.'
p2615
I0
tp2616
assS'macro_types'
p2617
(dp2618
g435
I0
sg437
I1
sg438
I0
sg439
I0
sg440
I0
sg442
I0
sg443
I0
sg444
I0
sg445
I0
sg446
I0
sg447
I1
sg448
I0
sg449
I0
sg450
I0
sg452
I0
sg453
I0
sg454
I0
sg456
I01
sg457
I1
sg458
I0
sg459
I0
ssS'commands'
p2619
(lp2620
sg479
(g944
S'VC12'
p2621
S'X86ARM'
p2622
tp2623
sS'build_libs'
p2624
(dp2625
sg481
g0
sS'frameworks'
p2626
(lp2627
sS'environ'
p2628
(dp2629
sS'target_name_debug'
p2630
g308
sS'builders'
p2631
(dp2632
g471
(dp2633
S'.S'
p2634
(dp2635
S'rvct'
p2636
(lp2637
S'.obj'
p2638
aS'echo ARM Assembling(RVCT) ${SOURCE}...'
p2639
aS'c:/marmalade/7.4/s3e\\rvct\\bin\\armasm -o ${TARGET} ${SOURCE}'
p2640
asg390
(lp2641
g2638
aS'echo ARM Assembling(GCC) ${SOURCE}...'
p2642
aS'c:/marmalade/7.4/s3e\\gcc\\bin\\arm-none-eabi-gcc -c -o ${TARGET} ${SOURCE}'
p2643
asS'ppu'
p2644
(lp2645
S'.a'
p2646
aS'echo PPU Assembling(SNC) ${SOURCE}...'
p2647
aS'c:/marmalade/7.4/s3e\\rvct\\bin\\armasm -o ${TARGET} ${SOURCE}'
p2648
assS'.s'
p2649
g2635
sssS'extproject_names'
p2650
(lp2651
sbtp2652
.