((dp0
S'arm_dbg_args'
p1
S'-via:"c:\\Users\\Josh\\Documents\\GameThrive\\SDK\\Marmalade\\GameThriveExample\\build_gamethriveexample_vc12\\GameThriveExample_vc12_arm_debug.via" -qemu'
p2
sS'game-icf'
p3
S''
p4
sS'dist'
p5
NsS'csproj'
p6
g4
sS'module_path_append'
p7
NsS'global_path'
p8
S'c:\\users\\josh\\documents\\gamethrive\\sdk\\marmalade'
p9
sS'system_path'
p10
S'c:\\marmalade\\7.4\\s3e\\makefile_builder'
p11
sS'android_x86_dbg_args'
p12
S'../../tools/DeployTool/DeployTool.exe --dir "c:\\Users\\Josh\\Documents\\GameThrive\\SDK\\Marmalade\\GameThriveExample\\build_gamethriveexample_vc12"'
p13
sS'no-emit'
p14
NsS'arm-float-abi'
p15
g4
sS'arm_rel_rtsm_args'
p16
S'-via:"c:\\Users\\Josh\\Documents\\GameThrive\\SDK\\Marmalade\\GameThriveExample\\build_gamethriveexample_vc12\\GameThriveExample_vc12_arm_release.via" -qemu'
p17
sS'amd64'
p18
NsS'line-width'
p19
I80
sS'gcc_dbg_args'
p20
S'-via:"c:\\Users\\Josh\\Documents\\GameThrive\\SDK\\Marmalade\\GameThriveExample\\build_gamethriveexample_vc12\\GameThriveExample_vc12_gcc_debug.via" -qemu'
p21
sS'android-x86'
p22
NsS'x86_dbg_exe'
p23
S'c:/marmalade/7.4/s3e\\win32\\s3e_simulator_debug.exe'
p24
sS'disable-runtime-checks'
p25
NsS'release'
p26
NsS'no-make'
p27
NsS'xcode-x86-build-settings'
p28
g4
sS'optimise-size'
p29
NsS'output-name-debug'
p30
g4
sS'arm-fpu'
p31
g4
sS'proj_name'
p32
S'GameThriveExample_vc12'
p33
sS'rvct-version'
p34
S'none'
p35
sS'compiler'
p36
S'gcc'
p37
sS'execute'
p38
NsS'compile-static'
p39
NsS'msvc-project'
p40
NsS'buildenv'
p41
S'VC12'
p42
sS'quick'
p43
NsS'module_path'
p44
NsS'mkf_default'
p45
S's3e-default.mkf'
p46
sS'use-release-std-libs'
p47
NsS'using_perforce'
p48
I00
sS'tizen-x86'
p49
NsS'mips-s3e'
p50
NsS's3e-api-lib-name'
p51
g4
sS'ios-no-pic'
p52
NsS'shared-arm-lib'
p53
NsS'arm-cpu'
p54
g4
sS'compile-thumb'
p55
NsS'no-ide'
p56
I01
sS'msvc-version'
p57
S'6.0'
p58
sS'arm'
p59
I01
sS'builddir'
p60
g4
sS'compile-debug-as-release'
p61
I0
sS'arm-arch'
p62
g4
sS'brief'
p63
NsS'dll'
p64
NsS'buildenv-toolset'
p65
g4
sS'version'
p66
NsS'ccache'
p67
I0
sS'offline'
p68
NsS'ios-version'
p69
g4
sS'hub_data'
p70
g4
sS'fake_vc_call'
p71
NsS'jobs'
p72
I0
sS'linkflags'
p73
NsS'debug'
p74
I01
sS'xcode-build-order'
p75
g4
sS'gcc_rel_rtsm_args'
p76
S'-via:"c:\\Users\\Josh\\Documents\\GameThrive\\SDK\\Marmalade\\GameThriveExample\\build_gamethriveexample_vc12\\GameThriveExample_vc12_gcc_release.via" -qemu'
p77
sS'done_defaults'
p78
I1
sS'path'
p79
NsS's3e-data-dir'
p80
S'c:/Users/Josh/Documents/GameThrive/SDK/Marmalade/GameThriveExample\\data'
p81
sS'enable-exceptions'
p82
NsS'osx-dll'
p83
NsS'extension'
p84
g4
sS'no-vc6'
p85
NsS'non-interactive'
p86
NsS'win32-console'
p87
NsS'dist-format'
p88
g4
sS's3e-force-arch'
p89
NsS'dump_defines'
p90
NsS'use-shared-std-libs'
p91
NsS'gcc-version'
p92
g4
sS'x86_dbg_args'
p93
S'-via:"c:\\Users\\Josh\\Documents\\GameThrive\\SDK\\Marmalade\\GameThriveExample\\build_gamethriveexample_vc12\\GameThriveExample_vc12_debug.via"'
p94
sS'tizen_x86_dbg_args'
p95
g13
sS'arm-debugger'
p96
g4
sS'use_temp_extension'
p97
NsS'verbose'
p98
I0
sS'log'
p99
NsS'no-strip'
p100
NsS'rebuild'
p101
NsS'win32-simulator-dll'
p102
NsS'strict'
p103
NsS'mips_dbg_args'
p104
g13
sS'enable-global-path'
p105
NsS'cflags'
p106
NsS'dist-dir'
p107
g4
sS'xcode-arm-build-settings'
p108
g4
sS'jflags'
p109
NsS'csprojSDKRefs'
p110
g4
sS'tizen_x86_rel_exe'
p111
S'c:\\marmalade\\7.4\\s3e\\makefile_builder\\tool_launcher.exe'
p112
sS'test-assets'
p113
g4
sS'distcc'
p114
NsS'external-compiler'
p115
NsS'no-distcc'
p116
NsS'preinclude'
p117
NsS'using_sdk'
p118
I01
sS'nologo'
p119
NsS'warn-level'
p120
I2
sS'mips_dbg_exe'
p121
g112
sS'mkb_in'
p122
S'c:/Users/Josh/Documents/GameThrive/SDK/Marmalade/GameThriveExample/GameThriveExample.mkb'
p123
sS'tizen_x86_dbg_exe'
p124
g112
sS'arm_dbg_exe'
p125
S'c:/marmalade/7.4/s3e\\bin\\armdebug.exe'
p126
sS'csprojDLLRef'
p127
NsS'tizen_x86_rel_args'
p128
g13
sS'android_x86_dbg_exe'
p129
g112
sS'test-config'
p130
g4
sS'list-targets'
p131
NsS'arm_rel_exe'
p132
g112
sS'arm_rel_args'
p133
g13
sS'makedeps'
p134
NsS'android_x86_rel_exe'
p135
g112
sS'default-buildenv'
p136
S'VC12'
p137
sS'x86_rel_exe'
p138
g24
sS'preprocess-java'
p139
NsS'mips_rel_args'
p140
g13
sS'defines'
p141
NsS'lib'
p142
NsS'global_argv'
p143
(lp144
S'C:\\Marmalade\\7.4\\s3e\\makefile_builder\\mkb.py'
p145
aS'C:/Users/Josh/Documents/GameThrive/SDK/Marmalade/GameThriveExample/GameThriveExample.mkb'
p146
aS'--buildenv=VC12'
p147
aS'--debug'
p148
aS'--arm'
p149
aS'--compiler=gcc'
p150
aS'--no-ide'
p151
aS'--make'
p152
asS'make'
p153
I01
sS'optimise-speed'
p154
NsS'internal'
p155
NsS'enable-stdinc'
p156
NsS'deploy-only'
p157
NsS'x86'
p158
NsS'deploy'
p159
g4
sS'x86_run_exe'
p160
S'c:/marmalade/7.4/s3e\\win32\\s3e_console.exe'
p161
sS'x86_rel_args'
p162
S'-via:"c:\\Users\\Josh\\Documents\\GameThrive\\SDK\\Marmalade\\GameThriveExample\\build_gamethriveexample_vc12\\GameThriveExample_vc12_release.via"'
p163
sS'gcc_rel_args'
p164
g13
sS'mips'
p165
NsS'xcode-build-settings'
p166
g4
sS'incredibuild'
p167
NsS'strict-compile'
p168
NsS'use-auto-subdirs'
p169
NsS'mips_rel_exe'
p170
g112
sS'android_x86_rel_args'
p171
g13
sS'app-icf'
p172
g4
sS'deployargs'
p173
NsS'iosnativedebug'
p174
NsS'use_prebuilt'
p175
NsS'mkf_in'
p176
(lp177
S'c:\\marmalade\\7.4\\s3e\\s3e-default.mkf'
p178
aS'c:\\users\\josh\\documents\\gamethrive\\sdk\\marmalade\\s3egamethrive\\s3egamethrive.mkf'
p179
aS'c:\\marmalade\\7.4\\modules\\iwutil\\iwutil.mkf'
p180
aS'c:\\marmalade\\7.4\\modules\\third_party\\libjpeg\\libjpeg.mkf'
p181
aS'c:\\marmalade\\7.4\\modules\\third_party\\libpng\\libpng.mkf'
p182
aS'c:\\marmalade\\7.4\\modules\\third_party\\zlib\\zlib.mkf'
p183
asS'strict-mkb'
p184
NsS'executeargs'
p185
NsS'clean'
p186
NsS'no-asm'
p187
NsS'output-name'
p188
g4
sS'no-modules'
p189
NsS'find_define'
p190
g4
s(dp191
S'c:\\marmalade\\7.4\\s3e\\makefile_builder\\plugins\\Emitter.pyc'
p192
F1418621496.0
sS'c:\\marmalade\\7.4\\s3e\\makefile_builder\\templates\\ws8_ext_sln.pyc'
p193
F1418621498.0
sS'c:\\marmalade\\7.4\\s3e\\makefile_builder\\templates\\MainWindow.xib'
p194
F1418620376.0
sS'c:\\marmalade\\7.4\\s3e\\makefile_builder\\templates\\template.suo'
p195
F1418620376.0
sS'c:\\marmalade\\7.4\\s3e\\makefile_builder\\plugins\\xcode4_schememanagement.py'
p196
F1418620376.0
sS'c:\\marmalade\\7.4\\s3e\\makefile_builder\\templates\\ws81_sln.pyc'
p197
F1418621498.0
sS'c:\\marmalade\\7.4\\s3e\\makefile_builder\\templates\\win8_ext_csproj.pyc'
p198
F1418621498.0
sS'c:\\marmalade\\7.4\\s3e\\makefile_builder\\mkb_option.pyc'
p199
F1418621496.0
sS'c:\\marmalade\\7.4\\s3e\\makefile_builder\\plugins\\s3e_xcode.py'
p200
F1418620376.0
sS'c:\\marmalade\\7.4\\s3e\\makefile_builder\\plugins\\s3e_scons.pyc'
p201
F1418621496.0
sS'c:\\marmalade\\7.4\\s3e\\makefile_builder\\templates\\win8_vcxproj.pyc'
p202
F1418621498.0
sS'c:\\marmalade\\7.4\\s3e\\makefile_builder\\plugins\\null.pyc'
p203
F1418621496.0
sS'c:\\marmalade\\7.4\\s3e\\makefile_builder\\templates\\vc8_user.pyc'
p204
F1418621498.0
sS'c:\\marmalade\\7.4\\s3e\\makefile_builder\\templates\\wp81_ext_sln.pyc'
p205
F1418621498.0
sS'c:\\marmalade\\7.4\\s3e\\makefile_builder\\templates\\scons.pyc'
p206
F1418621498.0
sS'c:\\marmalade\\7.4\\s3e\\makefile_builder\\templates\\wp8_ext_csproj.pyc'
p207
F1418621498.0
sS'c:\\marmalade\\7.4\\s3e\\makefile_builder\\templates\\xcode_pbxuser.py'
p208
F1418620376.0
sS'c:\\marmalade\\7.4\\s3e\\makefile_builder\\plugins\\s3e_qmake.py'
p209
F1418620376.0
sS'c:\\marmalade\\7.4\\s3e\\makefile_builder\\plugins\\iphone.pyc'
p210
F1418621496.0
sS'c:\\marmalade\\7.4\\s3e\\makefile_builder\\templates\\ws81_ext_csproj.pyc'
p211
F1418621498.0
sS'c:\\marmalade\\7.4\\s3e\\makefile_builder\\templates\\vc6_opt.pyc'
p212
F1418621498.0
sS'c:\\marmalade\\7.4\\s3e\\makefile_builder\\plugins\\s3e_win8.pyc'
p213
F1418621496.0
sS'c:\\marmalade\\7.4\\s3e\\makefile_builder\\mkb_main.pyc'
p214
F1418621496.0
sS'c:\\marmalade\\7.4\\s3e\\makefile_builder\\templates\\wp8_csproj.pyc'
p215
F1418621498.0
sS'c:\\marmalade\\7.4\\s3e\\makefile_builder\\templates\\win32_vcproj.pyc'
p216
F1418621498.0
sS'c:\\marmalade\\7.4\\s3e\\makefile_builder\\templates\\win8_sln.pyc'
p217
F1418621498.0
sS'c:\\marmalade\\7.4\\s3e\\makefile_builder\\mkb_launcher.exe'
p218
F1418620632.0
sS'c:\\marmalade\\7.4\\s3e\\makefile_builder\\plugins\\osx_xcode.pyc'
p219
F1418621496.0
sS'c:\\marmalade\\7.4\\s3e\\makefile_builder\\plugins'
p220
F1421275212.4331255
sS'c:\\marmalade\\7.4\\s3e\\makefile_builder\\templates\\wp8_csproj_user.pyc'
p221
F1418621498.0
sS'c:\\marmalade\\7.4\\s3e\\makefile_builder\\plugins\\win32_vc6.pyc'
p222
F1418621496.0
sS'c:\\marmalade\\7.4\\s3e\\makefile_builder\\plugins\\s3e_vc6.pyc'
p223
F1418621496.0
sS'c:\\marmalade\\7.4\\s3e\\makefile_builder\\templates\\vc10_user.pyc'
p224
F1418621498.0
sS'c:\\marmalade\\7.4\\s3e\\makefile_builder\\docs\\deprecated.defines.txt'
p225
F1418620376.0
sS'c:\\marmalade\\7.4\\s3e\\makefile_builder\\templates\\wp81_csproj_user.pyc'
p226
F1418621498.0
sS'c:\\marmalade\\7.4\\s3e\\makefile_builder\\templates\\ws81_ext_sln.pyc'
p227
F1418621498.0
sS'c:\\marmalade\\7.4\\s3e\\makefile_builder\\templates\\make.py'
p228
F1418620376.0
sS'c:\\marmalade\\7.4\\s3e\\makefile_builder\\plugins\\wp81_wp81.pyc'
p229
F1418621496.0
sS'c:\\marmalade\\7.4\\s3e\\makefile_builder\\plugins\\s3e_qmake.pyc'
p230
F1421275212.3920977
sS'c:\\marmalade\\7.4\\s3e\\makefile_builder\\templates\\mips_linker_script'
p231
F1418620376.0
sS'c:\\marmalade\\7.4\\s3e\\makefile_builder\\plugins\\deploy.pyc'
p232
F1418621496.0
sS'c:\\marmalade\\7.4\\s3e\\makefile_builder\\plugins\\ws81_ws81.pyc'
p233
F1418621496.0
sS'c:\\marmalade\\7.4\\s3e\\makefile_builder\\mkb.py'
p234
F1418620376.0
sS'c:\\marmalade\\7.4\\s3e\\makefile_builder\\docs\\options.txt'
p235
F1418620376.0
sS'c:\\marmalade\\7.4\\s3e\\makefile_builder\\mkb_parser.pyc'
p236
F1418621496.0
sS'c:\\marmalade\\7.4\\s3e\\makefile_builder\\templates\\qmake_user.py'
p237
F1418620376.0
sS'c:\\marmalade\\7.4\\s3e\\makefile_builder\\docs\\mkb.defines.txt'
p238
F1418620376.0
sS'c:\\marmalade\\7.4\\s3e\\makefile_builder\\deployment.pyc'
p239
F1418621496.0
sS'c:\\marmalade\\7.4\\s3e\\makefile_builder\\plugins\\wp8_wp8.pyc'
p240
F1418621496.0
sS'c:\\marmalade\\7.4\\s3e\\makefile_builder\\plugins\\linux_scons.pyc'
p241
F1418621496.0
sS'c:\\marmalade\\7.4\\s3e\\makefile_builder\\plugins\\s3e_web.pyc'
p242
F1418621496.0
sS'c:\\marmalade\\7.4\\s3e\\makefile_builder\\plugins\\S3EEmitter.pyc'
p243
F1418621496.0
sS'c:\\marmalade\\7.4\\s3e\\makefile_builder\\plugins\\Win8Emitter.pyc'
p244
F1418621496.0
sS'c:\\marmalade\\7.4\\s3e\\makefile_builder\\templates\\xcode4_arm.xcscheme'
p245
F1418620376.0
sS'c:\\marmalade\\7.4\\s3e\\makefile_builder\\plugins\\vc6_utils.pyc'
p246
F1418621496.0
sS'c:\\marmalade\\7.4\\s3e\\makefile_builder\\templates\\wp8_vcxproj.pyc'
p247
F1418621498.0
sS'c:\\marmalade\\7.4\\s3e\\makefile_builder\\templates\\xcode4.xcscheme'
p248
F1418620376.0
sS'c:\\marmalade\\7.4\\s3e\\makefile_builder\\plugins\\MakeEmitter.pyc'
p249
F1418621496.0
sS'c:\\marmalade\\7.4\\s3e\\makefile_builder\\plugins\\java.pyc'
p250
F1418621496.0
sS'c:\\marmalade\\7.4\\s3e\\makefile_builder\\plugins\\XcodeEmitter.pyc'
p251
F1421275212.2590146
sS'c:\\marmalade\\7.4\\s3e\\makefile_builder\\plugins\\XcodeEmitter.py'
p252
F1418620376.0
sS'c:\\marmalade\\7.4\\s3e\\makefile_builder\\mkb_globals.pyc'
p253
F1418621496.0
sS'c:\\marmalade\\7.4\\s3e\\makefile_builder\\tool_launcher.exe'
p254
F1418620632.0
sS'c:\\marmalade\\7.4\\s3e\\makefile_builder\\mkb_util.pyc'
p255
F1418621496.0
sS'c:\\marmalade\\7.4\\s3e\\makefile_builder\\plugins\\xcode4_schememanagement.pyc'
p256
F1421275212.2800627
sS'c:\\marmalade\\7.4\\s3e\\makefile_builder\\templates\\ws8_sln.pyc'
p257
F1418621498.0
sS'c:\\marmalade\\7.4\\s3e\\makefile_builder\\templates\\win32_sln.pyc'
p258
F1418621498.0
sS'c:\\marmalade\\7.4\\s3e\\makefile_builder\\templates\\wp81_ext_csproj.pyc'
p259
F1418621498.0
sS'c:\\marmalade\\7.4\\s3e\\makefile_builder\\plugins\\s3e_wp81.pyc'
p260
F1418621496.0
sS'c:\\marmalade\\7.4\\s3e\\makefile_builder\\plugins\\s3e_wp8.pyc'
p261
F1418621496.0
sS'c:\\marmalade\\7.4\\s3e\\makefile_builder\\templates\\qmake.py'
p262
F1418620376.0
sS'c:\\marmalade\\7.4\\s3e\\makefile_builder\\templates\\gdb_start.txt'
p263
F1418620376.0
sS'c:\\marmalade\\7.4\\s3e\\makefile_builder\\templates'
p264
F1421275075.474561
sS'c:\\marmalade\\7.4\\s3e\\makefile_builder\\templates\\ws8_ext_csproj.pyc'
p265
F1418621498.0
sS'c:\\marmalade\\7.4\\s3e\\makefile_builder\\templates\\win8_csproj_user.pyc'
p266
F1418621498.0
sS'c:\\marmalade\\7.4\\s3e\\makefile_builder\\templates\\vc7_suo.pyc'
p267
F1418621498.0
sS'c:\\marmalade\\7.4\\s3e\\makefile_builder\\plugins\\VisualStudioEmitter.pyc'
p268
F1418621496.0
sS'c:\\marmalade\\7.4\\s3e\\makefile_builder\\templates\\linker_script'
p269
F1418620376.0
sS'c:\\marmalade\\7.4\\s3e\\makefile_builder\\docs\\deprecated.options.txt'
p270
F1418620376.0
sS'c:\\marmalade\\7.4\\s3e\\makefile_builder\\plugins\\s3e_xcode.pyc'
p271
F1421275212.4351263
sS'c:\\marmalade\\7.4\\s3e\\makefile_builder\\plugins\\s3e_ws8.pyc'
p272
F1418621496.0
sS'c:\\marmalade\\7.4\\s3e\\makefile_builder\\templates\\xcode4_DeployTool.xcscheme'
p273
F1418620376.0
sS'c:\\marmalade\\7.4\\s3e\\makefile_builder\\templates\\ws8_csproj_user.pyc'
p274
F1418621498.0
sS'c:\\marmalade\\7.4\\s3e\\makefile_builder\\plugins\\osx_scons.pyc'
p275
F1418621496.0
sS'c:\\marmalade\\7.4\\s3e\\makefile_builder\\templates\\ws81_csproj.pyc'
p276
F1418621498.0
sS'c:\\marmalade\\7.4\\s3e\\makefile_builder\\templates\\wp8_sln.pyc'
p277
F1418621498.0
sS'c:\\marmalade\\7.4\\s3e\\makefile_builder\\docs'
p278
F1421275075.501573
sS'c:\\marmalade\\7.4\\s3e\\makefile_builder\\plugins\\ws8_ws8.pyc'
p279
F1418621496.0
sS'c:\\marmalade\\7.4\\s3e\\makefile_builder\\docs\\deployment_options.txt'
p280
F1418620376.0
sS'c:\\marmalade\\7.4\\s3e\\makefile_builder\\templates\\win32_vcxproj_filters.pyc'
p281
F1418621498.0
sS'c:\\marmalade\\7.4\\s3e\\makefile_builder\\templates\\win32_dsw.pyc'
p282
F1418621498.0
sS'c:\\marmalade\\7.4\\s3e\\makefile_builder\\plugins\\s3e_ws81.pyc'
p283
F1418621496.0
sS'c:\\marmalade\\7.4\\s3e\\makefile_builder\\plugins\\SConsEmitter.pyc'
p284
F1418621496.0
sS'c:\\marmalade\\7.4\\s3e\\makefile_builder\\templates\\wp81_vcxproj.pyc'
p285
F1418621498.0
sS'c:\\marmalade\\7.4\\s3e\\makefile_builder\\plugins\\win8_utils.pyc'
p286
F1418621496.0
sS'c:\\marmalade\\7.4\\s3e\\makefile_builder\\templates\\template.opt'
p287
F1418620376.0
sS'c:\\marmalade\\7.4\\s3e\\makefile_builder\\plugins\\vc7_utils.pyc'
p288
F1418621496.0
sS'c:\\marmalade\\7.4\\s3e\\makefile_builder\\templates\\win32_dsp.pyc'
p289
F1418621498.0
sS'c:\\marmalade\\7.4\\s3e\\makefile_builder\\plugins\\s3e_make.pyc'
p290
F1418621496.0
sS'c:\\marmalade\\7.4\\s3e\\makefile_builder\\templates\\rvct_linker_script'
p291
F1418620376.0
sS'c:\\marmalade\\7.4\\s3e\\makefile_builder\\templates\\win8_csproj.pyc'
p292
F1418621498.0
sS'c:\\marmalade\\7.4\\s3e\\makefile_builder\\templates\\xcode.py'
p293
F1418620376.0
sS'c:\\marmalade\\7.4\\s3e\\makefile_builder\\templates\\ws8_vcxproj.pyc'
p294
F1418621498.0
sS'c:\\marmalade\\7.4\\s3e\\makefile_builder\\templates\\wp81_csproj.pyc'
p295
F1418621498.0
sS'c:\\marmalade\\7.4\\s3e\\makefile_builder\\mkb_upstream.pyc'
p296
F1418621496.0
sS'c:\\marmalade\\7.4\\s3e\\makefile_builder\\templates\\win32_vcxproj.pyc'
p297
F1418621498.0
sS'c:\\marmalade\\7.4\\s3e\\makefile_builder\\templates\\ws8_csproj.pyc'
p298
F1418621498.0
sS'c:\\marmalade\\7.4\\s3e\\makefile_builder\\docs\\parse_options.pyc'
p299
F1418621498.0
sS'c:\\marmalade\\7.4\\s3e\\makefile_builder\\templates\\Info.plist'
p300
F1418620376.0
sS'c:\\marmalade\\7.4\\s3e\\makefile_builder\\templates\\wp81_sln.pyc'
p301
F1418621498.0
sS'c:\\marmalade\\7.4\\s3e\\makefile_builder\\templates\\ws81_csproj_user.pyc'
p302
F1418621498.0
sS'c:\\marmalade\\7.4\\s3e\\makefile_builder\\templates\\ws81_vcxproj.pyc'
p303
F1418621498.0
sccopy_reg
_reconstructor
p304
(cmkb_main
MkbFile
p305
c__builtin__
object
p306
Ntp307
Rp308
(dp309
g5
(lp310
sS'target_name'
p311
S'GameThriveExample'
p312
sS'current_file'
p313
g123
sS'package_path'
p314
(lp315
sS'post_build'
p316
(lp317
(lp318
S'c:/marmalade/7.4/s3e/tools'
p319
aS'C:\\Marmalade\\7.4\\s3e\\python\\python.exe .\\process_map.py "$(TargetPath)"'
p320
aa(S'c:\\marmalade\\7.4\\s3e\\bin'
p321
S'"s3e_plink" -l "$(TargetPath)" '
p322
g158
tp323
asS'librarys'
p324
(lp325
g304
(cmkb_main
Library
p326
g306
Ntp327
Rp328
(dp329
S'name'
p330
S'vc6_compat.lib'
p331
sS'expand_name'
p332
I00
sS'include_spec_rvct_objs'
p333
(lp334
sS'include_all_objs'
p335
I00
sS'share_arm'
p336
I00
sS'arch'
p337
S'x86'
p338
sS'nodebug'
p339
I00
sg36
Nsbag304
(g326
g306
Ntp340
Rp341
(dp342
g330
S'iwutil'
p343
sg332
I01
sg333
(lp344
sg335
Nsg336
Nsg337
Nsg339
I00
sg36
Nsbag304
(g326
g306
Ntp345
Rp346
(dp347
g330
S'jpeg'
p348
sg332
I01
sg333
g344
sg335
Nsg336
Nsg337
Nsg339
I00
sg36
Nsbag304
(g326
g306
Ntp349
Rp350
(dp351
g330
S'z'
p352
sg332
I01
sg333
g344
sg335
Nsg336
Nsg337
Nsg339
I00
sg36
Nsbag304
(g326
g306
Ntp353
Rp354
(dp355
g330
S'png'
p356
sg332
I01
sg333
g344
sg335
Nsg336
Nsg337
Nsg339
I00
sg36
Nsbag304
(g326
g306
Ntp357
Rp358
(dp359
g330
S's3e_cpp'
p360
sg332
I01
sg333
g334
sg335
I00
sg336
I00
sg337
Nsg339
I00
sg36
Nsbag304
(g326
g306
Ntp361
Rp362
(dp363
g330
S's3e'
p364
sg332
I01
sg333
(lp365
S'iwcrt.o'
p366
asg335
I00
sg336
I00
sg337
Nsg339
I00
sg36
Nsbag304
(g326
g306
Ntp367
Rp368
(dp369
g330
S's3e_api'
p370
sg332
I01
sg333
g334
sg335
I00
sg336
I00
sg337
S'x86'
p371
sg339
I01
sg36
Nsbag304
(g326
g306
Ntp372
Rp373
(dp374
g330
g370
sg332
I01
sg333
g334
sg335
I00
sg336
I00
sg337
S'!x86'
p375
sg339
I01
sg36
Nsbag304
(g326
g306
Ntp376
Rp377
(dp378
g330
S'stdc++'
p379
sg332
I00
sg333
g334
sg335
I00
sg336
I00
sg337
S'mips'
p380
sg339
I00
sg36
Nsbag304
(g326
g306
Ntp381
Rp382
(dp383
g330
S'c'
p384
sg332
I00
sg333
g334
sg335
I00
sg336
I00
sg337
S'mips'
p385
sg339
I00
sg36
Nsbag304
(g326
g306
Ntp386
Rp387
(dp388
g330
S'm'
p389
sg332
I00
sg333
g334
sg335
I00
sg336
I00
sg337
S'mips'
p390
sg339
I00
sg36
Nsbag304
(g326
g306
Ntp391
Rp392
(dp393
g330
S'gcc'
p394
sg332
I00
sg333
g334
sg335
I00
sg336
I00
sg337
S'mips'
p395
sg339
I00
sg36
Nsbag304
(g326
g306
Ntp396
Rp397
(dp398
g330
S'stdc++'
p399
sg332
I00
sg333
g334
sg335
I00
sg336
I00
sg337
S'gcc_x86_android'
p400
sg339
I00
sg36
Nsbag304
(g326
g306
Ntp401
Rp402
(dp403
g330
g384
sg332
I00
sg333
g334
sg335
I00
sg336
I00
sg337
S'gcc_x86_android'
p404
sg339
I00
sg36
Nsbag304
(g326
g306
Ntp405
Rp406
(dp407
g330
g389
sg332
I00
sg333
g334
sg335
I00
sg336
I00
sg337
S'gcc_x86_android'
p408
sg339
I00
sg36
Nsbag304
(g326
g306
Ntp409
Rp410
(dp411
g330
g394
sg332
I00
sg333
g334
sg335
I00
sg336
I00
sg337
S'gcc_x86_android'
p412
sg339
I00
sg36
NsbasS'library_paths'
p413
(lp414
g304
(cmkb_main
LibraryPath
p415
g306
Ntp416
Rp417
(dp418
S'expand_path'
p419
I01
sg330
S'c:/marmalade/7.4/modules/iwutil'
p420
sbag304
(g415
g306
Ntp421
Rp422
(dp423
g419
I01
sg330
S'c:/marmalade/7.4/modules/third_party/libjpeg'
p424
sbag304
(g415
g306
Ntp425
Rp426
(dp427
g419
I01
sg330
S'c:/marmalade/7.4/modules/third_party/zlib'
p428
sbag304
(g415
g306
Ntp429
Rp430
(dp431
g419
I01
sg330
S'c:/marmalade/7.4/modules/third_party/libpng'
p432
sbag304
(g415
g306
Ntp433
Rp434
(dp435
g419
I01
sg330
S'c:/marmalade/7.4/s3e'
p436
sbasS'macros'
p437
(dp438
S'IW_ASSERTION_CHANNEL_GAMETHRIVE'
p439
S'1'
p440
sS'IW_PLATFORM_S3E'
p441
NsS'I3D_PLATFORM_S3E'
p442
NsS'IW_USE_CALLSTACK'
p443
NsS'IW_TRACE_CHANNEL_GAMETHRIVE'
p444
g440
sS'IW_MKF_LIBJPEG'
p445
NsS'I3D_OS_S3E'
p446
NsS'IW_APP_VERSION'
p447
S'"1.0"'
p448
sS'IW_MKF_IWUTIL'
p449
NsS'IW_SDK'
p450
NsS'IW_APP_NAME'
p451
S'"GameThriveExample"'
p452
sS'IW_TRACE_CHANNEL_GAMETHRIVE_VERBOSE'
p453
S'2'
p454
sS'IW_MKF_S3E_DEFAULT'
p455
NsS'IW_MKF_ZLIB'
p456
NsS'IW_MKF_S3EGAMETHRIVE'
p457
NsS'IW_USE_ASSERTIONS'
p458
NsS'_CRT_SECURE_NO_DEPRECATE'
p459
NsS'IW_MKF_LIBPNG'
p460
NsS'IW_DEBUG'
p461
NsS'IW_USE_TRACING'
p462
NsS'S3E_INCLUDE_LEGACY'
p463
NsS'__S3E__'
p464
NssS'done_warnings'
p465
(dp466
sS'subprojects'
p467
(dp468
g183
S'zlib'
p469
sg178
S's3e-default.mkf'
p470
sg179
S'../s3eGameThrive/s3eGameThrive.mkf'
p471
sg181
S'libjpeg'
p472
sg180
S'iwutil'
p473
sg182
S'libpng'
p474
ssS'deployments'
p475
(dp476
S'Default'
p477
g304
(cdeployment
Deployment
p478
g306
Ntp479
Rp480
(dp481
S'got_version'
p482
I0
sS'assets'
p483
g477
sS'mkb'
p484
g308
sS'target'
p485
Nsg337
(lp486
sS'options'
p487
(dp488
S'iphone-link-lib'
p489
(lp490
S's3eGameThrive'
p491
asS'game-icf'
p492
NsS'android-tm'
p493
NsS'winmobile-icon32'
p494
NsS'ws8-logo-image150x150'
p495
NsS'wp81-logo-image150x150'
p496
NsS'ws81-product-version'
p497
NsS'osx-ext-dll'
p498
(lp499
sS'iphone-provisioning-profile'
p500
NsS'win32-icon'
p501
NsS'ws8-splash-screen-image620x300'
p502
NsS'wp81-extra-pri'
p503
(lp504
sS'ws8-ext-capabilities'
p505
(lp506
sS'android-icon-hdpi'
p507
NsS'iphone-ipad-only'
p508
NsS'iphone-splash-full-orient'
p509
NsS'wp8-tile-fliptemplate-supports-large'
p510
NsS'iphone-show-status-bar'
p511
NsS'roku-requires-mkv'
p512
NsS'long-caption'
p513
NsS'android-pkgname'
p514
NsS'wp81-publisher-display-name'
p515
NsS'blackberry-permissions-read-device-identifying-information'
p516
NsS'ws81-certificate-end-date'
p517
NsS'psp-dlgcontentid'
p518
NsS'iphone-minimum-ios-version'
p519
NsS'target-folder'
p520
NsS'tizen-dist1-CA-path'
p521
NsS'symbian-icon2-format'
p522
NsS'tizen-author-key'
p523
NsS'firefoxos-icon-128X128'
p524
NsS'iphone-region'
p525
NsS'uiq3-icon3-mask'
p526
NsS'brew-encoding'
p527
NsS'android-x86'
p528
NsS'nds-initialcode'
p529
NsS'iphone-persistent-wifi'
p530
NsS'psp-snd0'
p531
NsS'roku-icon-focus-hd'
p532
NsS'osx-appid'
p533
NsS'winmobile-install-folder'
p534
NsS'android-external-res'
p535
(lp536
S'c:/users/josh/documents/gamethrive/sdk/marmalade/s3egamethrive/incoming/android/res'
p537
aS'c:/Users/Josh/Documents/GameThrive/SDK/Marmalade/GameThriveExample/android/res'
p538
asS'ws8-product-version'
p539
NsS'brew-priviledges'
p540
NsS'iphone-icon-ipad-search'
p541
NsS'iphone-icon-ipad'
p542
NsS'iphone-skip-icon-generation'
p543
NsS'roku-hidden'
p544
NsS'psp-titlename'
p545
NsS'wp81-product-version'
p546
NsS'symbian-icon1-mask'
p547
NsS'psp-parentallevel'
p548
NsS'iphone-launch-storyboard'
p549
NsS'splashscreen-use-all'
p550
NsS'wp8-author'
p551
NsS'symbian-disable-ecompxl'
p552
NsS'splashscreen-auto-onblack'
p553
NsS'iphone-icon-dir'
p554
NsS'iphone-icon-extra'
p555
NsS'win32-ext-dll'
p556
(lp557
sS'iphone-development-key'
p558
NsS'winmobile-icon48'
p559
NsS'android-unsigned'
p560
NsS'osx-appstore-category'
p561
NsS'version-revision'
p562
NsS'roku-icon-focus-sd'
p563
NsS'android-keystore'
p564
NsS'winmobile-png90'
p565
NsS'iphone-icon-ipad-high-res'
p566
NsS'iphone-disable-ipad'
p567
NsS'ws81-splash-screen-background'
p568
NsS'wp8-ext-capabilities'
p569
(lp570
sS'brew-icon-large'
p571
NsS'symbian-icon1-mask-black'
p572
NsS'ws8-extra-res'
p573
(lp574
sS'iphone-bundle-localisations'
p575
NsS'winmobile-png60'
p576
NsS'blackberry-permissions-access-shared'
p577
NsS'blackberry-author'
p578
NsS'android-icon-xxxhdpi'
p579
NsS'olddeploytoolstyle'
p580
NsS'android_icon_gallery'
p581
NsS'wp81-splash-screen-background'
p582
NsS'winmobile-cab-compress'
p583
NsS'iphone-info-plist'
p584
NsS'ws81-ext-managed-dll'
p585
(lp586
sS'playbook-cskpass'
p587
NsS'ws8-distribution-pfx-password'
p588
NsS'symbian-key'
p589
NsS'app-icf'
p590
NsS'blackberry-storepass'
p591
NsS'wp8-tile-fliptemplate-back-title'
p592
NsS'brew-compress-loader'
p593
NsS'win32-pref-windowposy'
p594
NsS'win32-pref-windowposx'
p595
NsS'roku-requires-audiometadata'
p596
NsS'wp8-exclude-low-mem'
p597
NsS'iphone-icon-ipad-search-high-res'
p598
NsS'iphone-link-libdir'
p599
(lp600
S'c:/users/josh/documents/gamethrive/sdk/marmalade/s3egamethrive/lib/iphone'
p601
asS'wp81-ext-capabilities'
p602
(lp603
sS'blackberry-permissions-read-geolocation'
p604
NsS'ws81-ext-device-capabilities'
p605
(lp606
sS'tizen-signed'
p607
NsS'android-extra-application-manifest'
p608
(lp609
S'c:/users/josh/documents/gamethrive/sdk/marmalade/s3egamethrive/extras.application.txt'
p610
asS'ws8-ext-native-dll'
p611
(lp612
sS'symbian-icon2-mask'
p613
NsS'iphone-launch-extra'
p614
NsS'webos-memory'
p615
NsS'android-keypass'
p616
NsS'name'
p617
NsS'uiq3-icon2-format'
p618
NsS'roku-splash-screen-sd'
p619
NsS'auto-derbh'
p620
NsS'roku-icon-side-sd'
p621
NsS'android-external-assets'
p622
(lp623
sS'nds-publicsavedatasize'
p624
NsS'splashscreen'
p625
NsS'brew-mif'
p626
NsS'iphone-icon-settings-high-res'
p627
NsS'android-manifest'
p628
NsS'ws81-splash-screen-image620x300'
p629
NsS'wp81-product-name'
p630
NsS's3e-compression'
p631
NsS'tizen-author-password'
p632
NsS'wp8-tile-fliptemplate-back-content'
p633
NsS'blackberry-extra-descriptor'
p634
(lp635
sS'symbian-icon1'
p636
NsS'symbian-icon2'
p637
NsS'nds-makercode'
p638
NsS'android-extra-styles-file'
p639
NsS'wp81-publisher-id'
p640
NsS'nds-bannertitle-jp'
p641
NsS'wp81-logo-image44x44'
p642
NsS'osx-sign-for-store'
p643
NsS'symbian7-uid'
p644
NsS'wp8-tile-fliptemplate-large-back-content'
p645
NsS'wp81-phone-publisher-id'
p646
NsS'nds-bannertitle-cn'
p647
NsS'iphone-distribution-key'
p648
NsS'android-icon-gallery'
p649
NsS'blackberry-keystore'
p650
NsS'iphone-nosign'
p651
NsS'caption'
p652
NsS'android-extra-manifest'
p653
(lp654
S'c:/users/josh/documents/gamethrive/sdk/marmalade/s3egamethrive/extras.manifest.txt'
p655
asS'wp81-ext-sdk-ref'
p656
(lp657
sS'android-icon-xxhdpi'
p658
NsS'version-minor'
p659
NsS'iphone-skip-launch-generation'
p660
NsS'iphone-link-libdirs'
p661
(lp662
sS'iphone-icon-large'
p663
NsS'symbian-keypwd'
p664
NsS'symbian8-uid'
p665
NsS'symbian-cert-key'
p666
NsS'winmobile-ampd-part-number'
p667
NsS'arch'
p668
NsS'nds-romheadertemplate'
p669
NsS'webos-icon'
p670
NsS'wp81-ext-device-capabilities'
p671
(lp672
sS'psp-dlgprotectdocument'
p673
NsS'ws8-splash-screen-background'
p674
NsS'android-icon-mdpi'
p675
NsS'nds-icon'
p676
NsS'ws8-custom-manifest-fill'
p677
NsS'iphone-development-cert'
p678
NsS'blackberry-phone-icon'
p679
NsS'iphone-enable-4inch-retina'
p680
NsS'ws8-custom-manifest'
p681
NsS'version-major'
p682
NsS'wp8-genre-isgame'
p683
NsS'uiq3-uid'
p684
NsS'iphone-splash-retina-generate'
p685
NsS'tizen-hw-acceleration'
p686
NsS'iphone_bundle_localisations'
p687
NsS'tizen-dist1-key'
p688
NsS'wp81-custom-manifest-fill'
p689
NsS'wp8-custom-manifest'
p690
S'c:/Users/Josh/Documents/GameThrive/SDK/Marmalade/GameThriveExample/GameThriveCustomWP8Manifest.xml'
p691
sS'nds-bannertitle-ge'
p692
NsS'iphone-sign-for-distribution'
p693
NsS'wp8-tile-fliptemplate-medium-back-image'
p694
NsS'wp8-publisher-id'
p695
NsS'icon'
p696
NsS'wp8-exclude-wxga'
p697
NsS'wp81-identity-name'
p698
NsS'uiq3-icon2-mask'
p699
NsS'iphone-splashscreen-portrait'
p700
NsS'iphone-icon-high-res'
p701
NsS'ws81-distribution-pfx-password'
p702
NsS'playbook-author'
p703
NsS'android-icon-xhdpi'
p704
NsS'linux-ext-lib'
p705
(lp706
sS'blackberry-permissions-access-internet'
p707
NsS'wp8-exclude-720p'
p708
NsS'lgtv-use-drm'
p709
NsS'symbian-platsecflags'
p710
NsS'ws8-description'
p711
NsS'blackberry-playbook-icon'
p712
NsS'copyright'
p713
NsS'win32-gles-directory'
p714
NsS'version'
p715
NsS'iphone-uiviewcontroller-based-status-bar'
p716
NsS'ws81-logo-image150x150'
p717
NsS'osx-signing-identity-app'
p718
NsS'tizen-project-url'
p719
NsS'symbian-icon-svg'
p720
NsS'android-aliasname'
p721
NsS'psp-dlgmanual'
p722
NsS'brew-uid'
p723
NsS'symbian-locationsupport'
p724
NsS'wp81-logo-image50x50'
p725
NsS'ws8-ext-managed-dll'
p726
(lp727
sS'nds-bannertitle-it'
p728
NsS'ws81-custom-manifest-fill'
p729
NsS'ws8-ext-sdk-manifest-part'
p730
(lp731
sS'uiq3-icon1-mask'
p732
NsS'winmobile-icon16'
p733
NsS'ws8-product-name'
p734
NsS'blackberry-cskpass'
p735
NsS'winmobile-start-menu-folder'
p736
NsS'brew-clsid'
p737
NsS'roku-requires-bluetooth'
p738
NsS'ws8-ext-device-capabilities'
p739
(lp740
sS'blackberry-permissions-use-camera'
p741
NsS'ws81-extra-pri'
p742
(lp743
sS'iphone-prerendered-icon'
p744
NsS'iphone-appid'
p745
NsS'ws8-identity-name'
p746
NsS'tizen-dist2-CA-path'
p747
NsS'android-external-jars'
p748
(lp749
S'c:/users/josh/documents/gamethrive/sdk/marmalade/s3egamethrive/incoming/android/GameThriveSDK.jar'
p750
aS'c:/users/josh/documents/gamethrive/sdk/marmalade/s3egamethrive/lib/android/s3eGameThrive.jar'
p751
aS'c:/users/josh/documents/gamethrive/sdk/marmalade/s3egamethrive/incoming/android/google-play-services.jar'
p752
aS'c:/users/josh/documents/gamethrive/sdk/marmalade/s3egamethrive/incoming/android/android-support-v4.jar'
p753
asS'winmobile-icon64'
p754
NsS'blackberry-permissions-post-notification'
p755
NsS'winmobile-setup-dll'
p756
NsS'firefoxos-manifest'
p757
NsS'win8-winrt-extra-res'
p758
(lp759
sS'wp81-ext-sdk-manifest-part'
p760
(lp761
sS'symbian9-uid'
p762
NsS'iphone-icon-ipad-ios7'
p763
NsS'winmobile-trace-file'
p764
NsS'roku-splash-color'
p765
NsS'psp-appversion'
p766
NsS'ws8-publisher-id'
p767
NsS'android-supports-gl-texture'
p768
(lp769
sS'winmobile-png45'
p770
NsS'wp81-extra-res'
p771
(lp772
sS'android-storepass'
p773
NsS'osx-signing-identity-inst'
p774
NsS'android-custom-activity'
p775
NsS'psp-discversion'
p776
NsS'wp81-ext-managed-dll'
p777
(lp778
sS'psp-copyright'
p779
NsS'embed-icf'
p780
NsS'tizen-manifest'
p781
NsS'osx-icon'
p782
NsS'webos-appinfo'
p783
NsS'psp-dlghealthwarning'
p784
NsS'webos-appid'
p785
NsS'roku-icon-side-hd'
p786
NsS'iphone-icon-ipad-search-high-res-ios7'
p787
NsS'ws81-ext-sdk-manifest-part'
p788
(lp789
sS'loader_name_prefix'
p790
NsS'iphone-launch-dir'
p791
NsS'nds-titlename'
p792
NsS'ws81-logo-image50x50'
p793
NsS'wp81-custom-manifest'
p794
NsS'osx-entitlements-plist'
p795
NsS'psp-dlgicon0'
p796
NsS'winmobile-nouninstall'
p797
NsS'psp-discid'
p798
NsS'tizen-dist2-password'
p799
NsS'ws8-ext-sdk-ref'
p800
(lp801
sS'iphone-extra-string'
p802
(lp803
S'GTDummyKey,</string><key>UIBackgroundModes</key><array><string>remote-notification</string></array><key>GTDummyKey2</key><string>'
p804
asS'version-string'
p805
NsS'iphone-icon-high-res-ios7'
p806
NsS'blackberry-permissions-record-audio'
p807
NsS'ws8-certificate-end-date'
p808
NsS'tizen-so'
p809
(lp810
sS'wp8-tile-fliptemplate-small-image'
p811
NsS'playbook-authorid'
p812
NsS'iphone-signing-identity'
p813
NsS'roku-persist-quota'
p814
NsS'nds-bannertitle-fr'
p815
NsS'ws8-distribution-pfx'
p816
NsS'ws8-publisher-display-name'
p817
NsS'brew-icon-small'
p818
NsS'psp-dlgpic2'
p819
NsS'psp-dlgpic0'
p820
NsS'psp-pic0'
p821
NsS'psp-pic1'
p822
NsS'win32-pref-windowtitle'
p823
NsS'psp-icon0'
p824
NsS'psp-icon1'
p825
NsS'ws81-identity-name'
p826
NsS'winmobile-icon'
p827
NsS'iphone-no-splash'
p828
NsS'iphone-splash'
p829
NsS'iphone-app-fonts'
p830
NsS'wp8-ext-native-dll'
p831
(lp832
S'c:/users/josh/documents/gamethrive/sdk/marmalade/s3egamethrive/lib/wp8/s3eGameThriveExtension.dll'
p833
asS'wp81-splash-screen-image480x800'
p834
NsS'ws81-distribution-cer'
p835
NsS'iphone-backgroundmode-audio'
p836
NsS'uiq3-icon2'
p837
NsS'uiq3-icon3'
p838
NsS'uiq3-icon1'
p839
NsS'uiq3-icon1-format'
p840
NsS'ws8-logo-image50x50'
p841
NsS'symbian-icon2-mask-black'
p842
NsS'symbian-run-on-install'
p843
NsS'wp81-description'
p844
NsS'ws81-publisher-display-name'
p845
NsS'firefoxos-xulrunner'
p846
NsS'symbian-soundrecordsupport'
p847
NsS'nds-bannertitle-sp'
p848
NsS'psp-producer'
p849
NsS'iphone-apple-wwdr-cert'
p850
NsS'android-icon-nonstandard'
p851
NsS'win32-pref-processtitle'
p852
NsS'nds-bannertitle-hn'
p853
NsS'tizen-dist2-key'
p854
NsS'brew-depends'
p855
NsS'ws81-custom-manifest'
p856
NsS'iphone-allow-launch-rotation'
p857
NsS'iphone-icon-ipad-search-ios7'
p858
NsS'brew-icon-medium'
p859
NsS'iphone-bundle-url-name'
p860
NsS'wp8-tile-fliptemplate-large-front-image'
p861
NsS'tizen-dist2-CA-root-path'
p862
NsS'ws81-description'
p863
NsS'uiq3-icon3-format'
p864
NsS'ws81-logo-image30x30'
p865
NsS'win8-phone-extra-res'
p866
(lp867
sS'iphone-signing-host'
p868
NsS'tizen-icon'
p869
NsS'osx-info-plist'
p870
NsS'symbian-icon1-format'
p871
NsS'win8-store-extra-res'
p872
(lp873
sS'blackberry-authorid'
p874
NsS'ws81-publisher-id'
p875
NsS'ws81-distribution-pfx'
p876
NsS'wp8-description'
p877
NsS'iphone-link-opts'
p878
(lp879
S'-weak_framework UIKit'
p880
aS'-weak_framework UIKit'
p881
asS'ws81-ext-sdk-ref'
p882
(lp883
sS'roku-splash-min-time'
p884
NsS'wp8-tile-fliptemplate-medium-front-image'
p885
NsS'iphone-disable-launch-images'
p886
NsS'provider'
p887
NsS'playbook-keystore'
p888
NsS'tizen-appid'
p889
NsS'wp8-extra-res'
p890
(lp891
sS'symbian-osexecsupport'
p892
NsS'android-install-location'
p893
NsS'nds-privatesavedatasize'
p894
NsS'iphone-disable-testflight'
p895
NsS'playbook-storepass'
p896
NsS'android-icon-ldpi'
p897
NsS'manufacturer'
p898
NsS'itunes-artwork'
p899
NsS'iphone-extra-sections'
p900
NsS'ws81-product-name'
p901
NsS'ws81-ext-native-dll'
p902
(lp903
sS'ws8-extra-pri'
p904
(lp905
sS'wp8-product-id'
p906
NsS'ws8-logo-image30x30'
p907
NsS'wp8-ext-managed-dll'
p908
(lp909
S'c:/users/josh/documents/gamethrive/sdk/marmalade/s3egamethrive/incoming/wp8/GameThriveSDK.dll'
p910
aS'c:/users/josh/documents/gamethrive/sdk/marmalade/s3egamethrive/incoming/wp8/Newtonsoft.Json.dll'
p911
aS'c:/users/josh/documents/gamethrive/sdk/marmalade/s3egamethrive/lib/wp8/s3eGameThriveManaged.dll'
p912
asS'iphone-splashscreen-landscape'
p913
NsS'symbian-maxheapsize'
p914
NsS'android-extra-packages'
p915
(lp916
sS'priv-sign-key'
p917
NsS'networking'
p918
NsS'android-icon'
p919
NsS'iphone-icon-settings'
p920
NsS'wp81-phone-product-id'
p921
NsS'firefoxos-icon-60X60'
p922
NsS'iphone-distribution-cert'
p923
NsS'android_extra_strings'
p924
NsS'nds-bannertitle-en'
p925
NsS'wp8-tile-fliptemplate-title'
p926
NsS'android-so'
p927
(lp928
S'c:/users/josh/documents/gamethrive/sdk/marmalade/s3egamethrive/lib/android/libGameThrive.so'
p929
asS'wp8-higher-mem'
p930
NsS'wp8-ext-sdk-ref'
p931
(lp932
sS'wp8-fast-resume-mode'
p933
NsS'roku-splash-screen-hd'
p934
NsS'iphone-bundle-url-schemes'
p935
NsS'roku-screensaver-private'
p936
NsS'osx-extra-res'
p937
(lp938
sS'ws81-extra-res'
p939
(lp940
sS'playbook-icon'
p941
NsS'uid'
p942
NsS'pkguid-as-uid'
p943
NsS'wp81-ext-native-dll'
p944
(lp945
sS'tizen-dist1-password'
p946
NsS'roku-screensaver-title'
p947
NsS'osx-minimum-osx-version'
p948
NsS'symbian-cert'
p949
NsS'iphone-icon'
p950
NsS'ws81-ext-capabilities'
p951
(lp952
sS'ws8-distribution-cer'
p953
NsS'playbook-access-shared'
p954
NsS'iphone-icon-ipad-high-res-ios7'
p955
NsS'iphone-link-libs'
p956
(lp957
sS'wp8-exclude-wvga'
p958
NsS'assets'
p959
NsS'wp8-tile-fliptemplate-large-back-image'
p960
NsS'wp8-custom-manifest-fill'
p961
I0
sS'pub-sign-key'
p962
NsS'android-extra-strings'
p963
NsS'tizen-author-CA-path'
p964
Nssg330
g477
sbssS'platform'
p965
S'S3E'
p966
sg66
S'1.0'
p967
sS'arcade_platform'
p968
g4
sS'extensions'
p969
(dp970
sS'source_groups_tree'
p971
(dp972
S'(libpng)'
p973
(dp974
S'h'
p975
(dp976
S'c:/marmalade/7.4/modules/third_party/libpng/h/png.h'
p977
(lp978
I1
a(dp979
asS'c:/marmalade/7.4/modules/third_party/libpng/h/pngconf.h'
p980
(lp981
I1
ag979
assS'c:/marmalade/7.4/modules/third_party/libpng/libpng.mkf'
p982
(lp983
I1
a(dp984
assS'(libjpeg)'
p985
(dp986
g975
(dp987
S'c:/marmalade/7.4/modules/third_party/libjpeg/h/jerror.h'
p988
(lp989
I1
a(dp990
asS'c:/marmalade/7.4/modules/third_party/libjpeg/h/jmemsys.h'
p991
(lp992
I1
ag990
asS'c:/marmalade/7.4/modules/third_party/libjpeg/h/jpegint.h'
p993
(lp994
I1
ag990
asS'c:/marmalade/7.4/modules/third_party/libjpeg/h/jpeglib.h'
p995
(lp996
I1
ag990
asS'c:/marmalade/7.4/modules/third_party/libjpeg/h/cdjpeg.h'
p997
(lp998
I1
ag990
asS'c:/marmalade/7.4/modules/third_party/libjpeg/h/jchuff.h'
p999
(lp1000
I1
ag990
asS'c:/marmalade/7.4/modules/third_party/libjpeg/h/jconfig.h'
p1001
(lp1002
I1
ag990
asS'c:/marmalade/7.4/modules/third_party/libjpeg/h/jinclude.h'
p1003
(lp1004
I1
ag990
asS'c:/marmalade/7.4/modules/third_party/libjpeg/h/cderror.h'
p1005
(lp1006
I1
ag990
asS'c:/marmalade/7.4/modules/third_party/libjpeg/h/jdct.h'
p1007
(lp1008
I1
ag990
asS'c:/marmalade/7.4/modules/third_party/libjpeg/h/jversion.h'
p1009
(lp1010
I1
ag990
asS'c:/marmalade/7.4/modules/third_party/libjpeg/h/transupp.h'
p1011
(lp1012
I1
ag990
asS'c:/marmalade/7.4/modules/third_party/libjpeg/h/jdhuff.h'
p1013
(lp1014
I1
ag990
asS'c:/marmalade/7.4/modules/third_party/libjpeg/h/jmorecfg.h'
p1015
(lp1016
I1
ag990
assS'c:/marmalade/7.4/modules/third_party/libjpeg/libjpeg.mkf'
p1017
(lp1018
I1
a(dp1019
assS'Source'
p1020
(dp1021
S'c:/Users/Josh/Documents/GameThrive/SDK/Marmalade/GameThriveExample/GameThriveExample.cpp'
p1022
(lp1023
I1
a(dp1024
assS'Extensions'
p1025
(dp1026
S'GameThrive'
p1027
(dp1028
S'interface'
p1029
(dp1030
S'c:/users/josh/documents/gamethrive/sdk/marmalade/s3egamethrive/interface/s3eGameThrive_interface.cpp'
p1031
(lp1032
I1
a(dp1033
asS'c:/users/josh/documents/gamethrive/sdk/marmalade/s3egamethrive/interface/s3eGameThrive.defines.txt'
p1034
(lp1035
I1
ag1033
assS'c:/users/josh/documents/gamethrive/sdk/marmalade/s3egamethrive/s3egamethrive.mkf'
p1036
(lp1037
I1
a(dp1038
asS'c:/users/josh/documents/gamethrive/sdk/marmalade/s3egamethrive/h/s3eGameThrive.h'
p1039
(lp1040
I1
ag1033
asssS"'Marmalade Studio'"
p1041
(dp1042
S'iwutil'
p1043
(dp1044
S'c:/marmalade/7.4/modules/iwutil/h/IwTextParser.h'
p1045
(lp1046
I1
a(dp1047
asS'c:/marmalade/7.4/modules/iwutil/h/IwMenu.h'
p1048
(lp1049
I1
ag1047
asS'c:/marmalade/7.4/modules/iwutil/h/IwUtilInitTerm.h'
p1050
(lp1051
I1
ag1047
asS'c:/marmalade/7.4/modules/iwutil/h/IwCopyingPtr.h'
p1052
(lp1053
I1
ag1047
asS'c:/marmalade/7.4/modules/iwutil/h/IwDebug.h'
p1054
(lp1055
I1
ag1047
asS'c:/marmalade/7.4/modules/iwutil/h/IwVariableBitField.h'
p1056
(lp1057
I1
ag1047
asS'c:/marmalade/7.4/modules/iwutil/h/IwBuffer.h'
p1058
(lp1059
I1
ag1047
asS'c:/marmalade/7.4/modules/iwutil/h/IwKeymap.h'
p1060
(lp1061
I1
ag1047
asS'c:/marmalade/7.4/modules/iwutil/h/IwResource.h'
p1062
(lp1063
I1
ag1047
asS'c:/marmalade/7.4/modules/iwutil/h/IwCore.h'
p1064
(lp1065
I1
ag1047
asS'c:/marmalade/7.4/modules/iwutil/h/IwTextParserITX.h'
p1066
(lp1067
I1
ag1047
asS'c:/marmalade/7.4/modules/iwutil/h/IwRandom.h'
p1068
(lp1069
I1
ag1047
asS'c:/marmalade/7.4/modules/iwutil/h/IwHashString.h'
p1070
(lp1071
I1
ag1047
asS'c:/marmalade/7.4/modules/iwutil/h/IwProfileMenu.h'
p1072
(lp1073
I1
ag1047
asS'c:/marmalade/7.4/modules/iwutil/h/IwManagedList.h'
p1074
(lp1075
I1
ag1047
asS'c:/marmalade/7.4/modules/iwutil/h/IwList.h'
p1076
(lp1077
I1
ag1047
asS'c:/marmalade/7.4/modules/iwutil/h/IwSerialise.h'
p1078
(lp1079
I1
ag1047
asS'c:/marmalade/7.4/modules/iwutil/h/IwClassFactory.h'
p1080
(lp1081
I1
ag1047
asS'c:/marmalade/7.4/modules/iwutil/h/IwTypes.h'
p1082
(lp1083
I1
ag1047
asS'c:/marmalade/7.4/modules/iwutil/h/IwAllocator.h'
p1084
(lp1085
I1
ag1047
asS'c:/marmalade/7.4/modules/iwutil/docs/iwutil.config.txt'
p1086
(lp1087
I1
ag1047
asS'c:/marmalade/7.4/modules/iwutil/h/IwTextParseable.h'
p1088
(lp1089
I1
ag1047
asS'c:/marmalade/7.4/modules/iwutil/h/IwFile.h'
p1090
(lp1091
I1
ag1047
asS'c:/marmalade/7.4/modules/iwutil/h/IwRuntime.h'
p1092
(lp1093
I1
ag1047
asS'c:/marmalade/7.4/modules/iwutil/h/IwMemBucketHelpers.h'
p1094
(lp1095
I1
ag1047
asS'c:/marmalade/7.4/modules/iwutil/h/IwUncopyable.h'
p1096
(lp1097
I1
ag1047
asS'c:/marmalade/7.4/modules/iwutil/h/IwOptimiseSpeed.h'
p1098
(lp1099
I1
ag1047
asS'c:/marmalade/7.4/modules/iwutil/h/IwOptimiseARM.h'
p1100
(lp1101
I1
ag1047
asS'c:/marmalade/7.4/modules/iwutil/h/IwImage.h'
p1102
(lp1103
I1
ag1047
asS'c:/marmalade/7.4/modules/iwutil/h/IwImageHelper.h'
p1104
(lp1105
I1
ag1047
asS'c:/marmalade/7.4/modules/iwutil/h/IwMemBucket.h'
p1106
(lp1107
I1
ag1047
asS'c:/marmalade/7.4/modules/iwutil/h/IwDivide.h'
p1108
(lp1109
I1
ag1047
asS'c:/marmalade/7.4/modules/iwutil/h/IwChar.h'
p1110
(lp1111
I1
ag1047
asS'c:/marmalade/7.4/modules/iwutil/h/IwArray.h'
p1112
(lp1113
I1
ag1047
asS'c:/marmalade/7.4/modules/iwutil/h/IwMemory.h'
p1114
(lp1115
I1
ag1047
asS'c:/marmalade/7.4/modules/iwutil/h/IwManaged.h'
p1116
(lp1117
I1
ag1047
asS'c:/marmalade/7.4/modules/iwutil/h/IwUTF8.h'
p1118
(lp1119
I1
ag1047
asS'c:/marmalade/7.4/modules/iwutil/h/IwEvent.h'
p1120
(lp1121
I1
ag1047
asS'c:/marmalade/7.4/modules/iwutil/h/IwMath.h'
p1122
(lp1123
I1
ag1047
asS'c:/marmalade/7.4/modules/iwutil/h/IwAutoFile.h'
p1124
(lp1125
I1
ag1047
asS'c:/marmalade/7.4/modules/iwutil/h/IwString.h'
p1126
(lp1127
I1
ag1047
asS'c:/marmalade/7.4/modules/iwutil/iwutil.mkf'
p1128
(lp1129
I1
a(dp1130
asS'c:/marmalade/7.4/modules/iwutil/h/IwSingleton.h'
p1131
(lp1132
I1
ag1047
asS'c:/marmalade/7.4/modules/iwutil/h/IwFibre.h'
p1133
(lp1134
I1
ag1047
asS'c:/marmalade/7.4/modules/iwutil/h/IwOptimiseThumb.h'
p1135
(lp1136
I1
ag1047
asS'c:/marmalade/7.4/modules/iwutil/h/IwUtil.h'
p1137
(lp1138
I1
ag1047
asS'c:/marmalade/7.4/modules/iwutil/h/IwPath.h'
p1139
(lp1140
I1
ag1047
asS'c:/marmalade/7.4/modules/iwutil/h/IwMemManagerDL.h'
p1141
(lp1142
I1
ag1047
asS'c:/marmalade/7.4/modules/iwutil/h/IwDivTable.h'
p1143
(lp1144
I1
ag1047
asS'c:/marmalade/7.4/modules/iwutil/h/IwOptimiseSize.h'
p1145
(lp1146
I1
ag1047
asssS'(zlib)'
p1147
(dp1148
g975
(dp1149
S'c:/marmalade/7.4/modules/third_party/zlib/h/zconf.h'
p1150
(lp1151
I1
a(dp1152
asS'c:/marmalade/7.4/modules/third_party/zlib/h/zlib.h'
p1153
(lp1154
I1
ag1152
assS'c:/marmalade/7.4/modules/third_party/zlib/zlib.mkf'
p1155
(lp1156
I1
a(dp1157
assS'Data'
p1158
(dp1159
S'c:/Users/Josh/Documents/GameThrive/SDK/Marmalade/GameThriveExample/data/notification.wav'
p1160
(lp1161
I1
ag1024
assS'(s3e-default)'
p1162
(dp1163
S'c:/marmalade/7.4/s3e/s3e-default.mkf'
p1164
(lp1165
I1
a(dp1166
asssS'files'
p1167
(dp1168
S'hash_map'
p1169
g304
(cmkb_main
File
p1170
g306
Ntp1171
Rp1172
(dp1173
S'flags'
p1174
(dp1175
sS'group'
p1176
(lp1177
S"'Marmalade System (S3E)'"
p1178
aS'stdc headers'
p1179
aS'c++'
p1180
asg330
S'c:/marmalade/7.4/s3e/h/std/c++/hash_map'
p1181
sbsS'IwArray.h'
p1182
g304
(g1170
g306
Ntp1183
Rp1184
(dp1185
g1174
g1047
sg1176
(lp1186
g1041
ag1043
asg330
g1112
sbsS'iterator'
p1187
g304
(g1170
g306
Ntp1188
Rp1189
(dp1190
g1174
g1175
sg1176
g1177
sg330
S'c:/marmalade/7.4/s3e/h/std/c++/iterator'
p1191
sbsS'IwUTF8.h'
p1192
g304
(g1170
g306
Ntp1193
Rp1194
(dp1195
g1174
g1047
sg1176
g1186
sg330
g1118
sbsS'math_rvct.h'
p1196
g304
(g1170
g306
Ntp1197
Rp1198
(dp1199
g1174
g1175
sg1176
(lp1200
g1178
aS'stdc headers'
p1201
asg330
S'c:/marmalade/7.4/s3e/h/std/math_rvct.h'
p1202
sbsS'pthread_alloc'
p1203
g304
(g1170
g306
Ntp1204
Rp1205
(dp1206
g1174
g1175
sg1176
g1177
sg330
S'c:/marmalade/7.4/s3e/h/std/c++/pthread_alloc'
p1207
sbsS'ctype.h'
p1208
g304
(g1170
g306
Ntp1209
Rp1210
(dp1211
g1174
g1175
sg1176
g1200
sg330
S'c:/marmalade/7.4/s3e/h/std/ctype.h'
p1212
sbsS'ctime'
p1213
g304
(g1170
g306
Ntp1214
Rp1215
(dp1216
g1174
g1175
sg1176
g1177
sg330
S'c:/marmalade/7.4/s3e/h/std/c++/ctime'
p1217
sbsS's3e.h'
p1218
g304
(g1170
g306
Ntp1219
Rp1220
(dp1221
g1174
g1175
sg1176
(lp1222
g1178
asg330
S'c:/marmalade/7.4/s3e/h/s3e.h'
p1223
sbsS'errno.h'
p1224
g304
(g1170
g306
Ntp1225
Rp1226
(dp1227
g1174
g1175
sg1176
g1200
sg330
S'c:/marmalade/7.4/s3e/h/std/errno.h'
p1228
sbsS'IwUtil.h'
p1229
g304
(g1170
g306
Ntp1230
Rp1231
(dp1232
g1174
g1047
sg1176
g1186
sg330
g1137
sbsS'IwSingleton.h'
p1233
g304
(g1170
g306
Ntp1234
Rp1235
(dp1236
g1174
g1047
sg1176
g1186
sg330
g1131
sbsS'dirent.h'
p1237
g304
(g1170
g306
Ntp1238
Rp1239
(dp1240
g1174
g1175
sg1176
g1200
sg330
S'c:/marmalade/7.4/s3e/h/std/dirent.h'
p1241
sbsS'IwCore.h'
p1242
g304
(g1170
g306
Ntp1243
Rp1244
(dp1245
g1174
g1047
sg1176
g1186
sg330
g1064
sbsS'dlfcn.h'
p1246
g304
(g1170
g306
Ntp1247
Rp1248
(dp1249
g1174
g1175
sg1176
g1200
sg330
S'c:/marmalade/7.4/s3e/h/std/dlfcn.h'
p1250
sbsS'fstream.h'
p1251
g304
(g1170
g306
Ntp1252
Rp1253
(dp1254
g1174
g1175
sg1176
g1177
sg330
S'c:/marmalade/7.4/s3e/h/std/c++/fstream.h'
p1255
sbsS'cfloat'
p1256
g304
(g1170
g306
Ntp1257
Rp1258
(dp1259
g1174
g1175
sg1176
g1177
sg330
S'c:/marmalade/7.4/s3e/h/std/c++/cfloat'
p1260
sbsS'IwAllocator.h'
p1261
g304
(g1170
g306
Ntp1262
Rp1263
(dp1264
g1174
g1047
sg1176
g1186
sg330
g1084
sbsS'stdio_streambuf'
p1265
g304
(g1170
g306
Ntp1266
Rp1267
(dp1268
g1174
g1175
sg1176
g1177
sg330
S'c:/marmalade/7.4/s3e/h/std/c++/stdio_streambuf'
p1269
sbsS's3eGL.h'
p1270
g304
(g1170
g306
Ntp1271
Rp1272
(dp1273
g1174
g1175
sg1176
g1222
sg330
S'c:/marmalade/7.4/s3e/h/s3eGL.h'
p1274
sbsS'wctype.h'
p1275
g304
(g1170
g306
Ntp1276
Rp1277
(dp1278
g1174
g1175
sg1176
g1200
sg330
S'c:/marmalade/7.4/s3e/h/std/wctype.h'
p1279
sbsS'IwPath.h'
p1280
g304
(g1170
g306
Ntp1281
Rp1282
(dp1283
g1174
g1047
sg1176
g1186
sg330
g1139
sbsS'sched.h'
p1284
g304
(g1170
g306
Ntp1285
Rp1286
(dp1287
g1174
g1175
sg1176
g1200
sg330
S'c:/marmalade/7.4/s3e/h/std/sched.h'
p1288
sbsS'valarray'
p1289
g304
(g1170
g306
Ntp1290
Rp1291
(dp1292
g1174
g1175
sg1176
g1177
sg330
S'c:/marmalade/7.4/s3e/h/std/c++/valarray'
p1293
sbsS'cassert'
p1294
g304
(g1170
g306
Ntp1295
Rp1296
(dp1297
g1174
g1175
sg1176
g1177
sg330
S'c:/marmalade/7.4/s3e/h/std/c++/cassert'
p1298
sbsS'grp.h'
p1299
g304
(g1170
g306
Ntp1300
Rp1301
(dp1302
g1174
g1175
sg1176
g1200
sg330
S'c:/marmalade/7.4/s3e/h/std/grp.h'
p1303
sbsS'list'
p1304
g304
(g1170
g306
Ntp1305
Rp1306
(dp1307
g1174
g1175
sg1176
g1177
sg330
S'c:/marmalade/7.4/s3e/h/std/c++/list'
p1308
sbsS'istream'
p1309
g304
(g1170
g306
Ntp1310
Rp1311
(dp1312
g1174
g1175
sg1176
g1177
sg330
S'c:/marmalade/7.4/s3e/h/std/c++/istream'
p1313
sbsS'poll.h'
p1314
g304
(g1170
g306
Ntp1315
Rp1316
(dp1317
g1174
g1175
sg1176
g1200
sg330
S'c:/marmalade/7.4/s3e/h/std/poll.h'
p1318
sbsS'jpeglib.h'
p1319
g304
(g1170
g306
Ntp1320
Rp1321
(dp1322
g1174
g990
sg1176
(lp1323
g985
ag975
asg330
g995
sbsS's3eAccelerometer.h'
p1324
g304
(g1170
g306
Ntp1325
Rp1326
(dp1327
g1174
g1175
sg1176
g1222
sg330
S'c:/marmalade/7.4/s3e/h/s3eAccelerometer.h'
p1328
sbsS'iostream.h'
p1329
g304
(g1170
g306
Ntp1330
Rp1331
(dp1332
g1174
g1175
sg1176
g1177
sg330
S'c:/marmalade/7.4/s3e/h/std/c++/iostream.h'
p1333
sbsS's3eOSReadString.h'
p1334
g304
(g1170
g306
Ntp1335
Rp1336
(dp1337
g1174
g1175
sg1176
(lp1338
g1178
aS'Extensions'
p1339
asg330
S'c:/marmalade/7.4/s3e/h/ext/s3eOSReadString.h'
p1340
sbsS'cstddef'
p1341
g304
(g1170
g306
Ntp1342
Rp1343
(dp1344
g1174
g1175
sg1176
g1177
sg330
S'c:/marmalade/7.4/s3e/h/std/c++/cstddef'
p1345
sbsS'iosfwd'
p1346
g304
(g1170
g306
Ntp1347
Rp1348
(dp1349
g1174
g1175
sg1176
g1177
sg330
S'c:/marmalade/7.4/s3e/h/std/c++/iosfwd'
p1350
sbsS'string'
p1351
g304
(g1170
g306
Ntp1352
Rp1353
(dp1354
g1174
g1175
sg1176
g1177
sg330
S'c:/marmalade/7.4/s3e/h/std/c++/string'
p1355
sbsS's3egamethrive.mkf'
p1356
g304
(g1170
g306
Ntp1357
Rp1358
(dp1359
g1174
g1038
sg1176
(lp1360
g1025
ag1027
asg330
g1036
sbsS'IwMemory.h'
p1361
g304
(g1170
g306
Ntp1362
Rp1363
(dp1364
g1174
g1047
sg1176
g1186
sg330
g1114
sbsS'mman.h'
p1365
g304
(g1170
g306
Ntp1366
Rp1367
(dp1368
g1174
g1175
sg1176
(lp1369
g1178
aS'stdc headers'
p1370
aS'sys'
p1371
asg330
S'c:/marmalade/7.4/s3e/h/std/sys/mman.h'
p1372
sbsS'IwRandom.h'
p1373
g304
(g1170
g306
Ntp1374
Rp1375
(dp1376
g1174
g1047
sg1176
g1186
sg330
g1068
sbsS'libgen.h'
p1377
g304
(g1170
g306
Ntp1378
Rp1379
(dp1380
g1174
g1175
sg1176
g1200
sg330
S'c:/marmalade/7.4/s3e/h/std/libgen.h'
p1381
sbsS'utsname.h'
p1382
g304
(g1170
g306
Ntp1383
Rp1384
(dp1385
g1174
g1175
sg1176
g1369
sg330
S'c:/marmalade/7.4/s3e/h/std/sys/utsname.h'
p1386
sbsS'notification.wav'
p1387
g304
(g1170
g306
Ntp1388
Rp1389
(dp1390
g1174
g1024
sg1176
(lp1391
g1158
asg330
g1160
sbsS'wait.h'
p1392
g304
(g1170
g306
Ntp1393
Rp1394
(dp1395
g1174
g1175
sg1176
g1369
sg330
S'c:/marmalade/7.4/s3e/h/std/sys/wait.h'
p1396
sbsS'IwFile.h'
p1397
g304
(g1170
g306
Ntp1398
Rp1399
(dp1400
g1174
g1047
sg1176
g1186
sg330
g1090
sbsS'IwTextParseable.h'
p1401
g304
(g1170
g306
Ntp1402
Rp1403
(dp1404
g1174
g1047
sg1176
g1186
sg330
g1088
sbsS'istream.h'
p1405
g304
(g1170
g306
Ntp1406
Rp1407
(dp1408
g1174
g1175
sg1176
g1177
sg330
S'c:/marmalade/7.4/s3e/h/std/c++/istream.h'
p1409
sbsS'type_traits.h'
p1410
g304
(g1170
g306
Ntp1411
Rp1412
(dp1413
g1174
g1175
sg1176
g1177
sg330
S'c:/marmalade/7.4/s3e/h/std/c++/type_traits.h'
p1414
sbsS's3eGameThrive.defines.txt'
p1415
g304
(g1170
g306
Ntp1416
Rp1417
(dp1418
g1174
g1033
sg1176
(lp1419
g1025
ag1027
ag1029
asg330
g1034
sbsS'cwchar'
p1420
g304
(g1170
g306
Ntp1421
Rp1422
(dp1423
g1174
g1175
sg1176
g1177
sg330
S'c:/marmalade/7.4/s3e/h/std/c++/cwchar'
p1424
sbsS'stdint.h'
p1425
g304
(g1170
g306
Ntp1426
Rp1427
(dp1428
g1174
g1175
sg1176
g1200
sg330
S'c:/marmalade/7.4/s3e/h/std/stdint.h'
p1429
sbsS'semaphore.h'
p1430
g304
(g1170
g306
Ntp1431
Rp1432
(dp1433
g1174
g1175
sg1176
g1200
sg330
S'c:/marmalade/7.4/s3e/h/std/semaphore.h'
p1434
sbsS'iomanip'
p1435
g304
(g1170
g306
Ntp1436
Rp1437
(dp1438
g1174
g1175
sg1176
g1177
sg330
S'c:/marmalade/7.4/s3e/h/std/c++/iomanip'
p1439
sbsS'gl2.h'
p1440
g304
(g1170
g306
Ntp1441
Rp1442
(dp1443
g1174
g1175
sg1176
(lp1444
g1178
aS'GL'
p1445
aS'GLES 2.0'
p1446
asg330
S'c:/marmalade/7.4/s3e/h/GLES2/gl2.h'
p1447
sbsS'assert.h'
p1448
g304
(g1170
g306
Ntp1449
Rp1450
(dp1451
g1174
g1175
sg1176
g1200
sg330
S'c:/marmalade/7.4/s3e/h/std/assert.h'
p1452
sbsS'param.h'
p1453
g304
(g1170
g306
Ntp1454
Rp1455
(dp1456
g1174
g1175
sg1176
g1369
sg330
S'c:/marmalade/7.4/s3e/h/std/sys/param.h'
p1457
sbsS'dir.h'
p1458
g304
(g1170
g306
Ntp1459
Rp1460
(dp1461
g1174
g1175
sg1176
g1369
sg330
S'c:/marmalade/7.4/s3e/h/std/sys/dir.h'
p1462
sbsS'new'
p1463
g304
(g1170
g306
Ntp1464
Rp1465
(dp1466
g1174
g1175
sg1176
g1177
sg330
S'c:/marmalade/7.4/s3e/h/std/c++/new'
p1467
sbsS'IwDivide.h'
p1468
g304
(g1170
g306
Ntp1469
Rp1470
(dp1471
g1174
g1047
sg1176
g1186
sg330
g1108
sbsS'locale.h'
p1472
g304
(g1170
g306
Ntp1473
Rp1474
(dp1475
g1174
g1175
sg1176
g1200
sg330
S'c:/marmalade/7.4/s3e/h/std/locale.h'
p1476
sbsS'IwManagedList.h'
p1477
g304
(g1170
g306
Ntp1478
Rp1479
(dp1480
g1174
g1047
sg1176
g1186
sg330
g1074
sbsS's3eGameThrive_interface.cpp'
p1481
g304
(g1170
g306
Ntp1482
Rp1483
(dp1484
g1174
g1033
sg1176
g1419
sg330
g1031
sbsS'ostream'
p1485
g304
(g1170
g306
Ntp1486
Rp1487
(dp1488
g1174
g1175
sg1176
g1177
sg330
S'c:/marmalade/7.4/s3e/h/std/c++/ostream'
p1489
sbsS'termios.h'
p1490
g304
(g1170
g306
Ntp1491
Rp1492
(dp1493
g1174
g1175
sg1176
g1200
sg330
S'c:/marmalade/7.4/s3e/h/std/termios.h'
p1494
sbsS'cwctype'
p1495
g304
(g1170
g306
Ntp1496
Rp1497
(dp1498
g1174
g1175
sg1176
g1177
sg330
S'c:/marmalade/7.4/s3e/h/std/c++/cwctype'
p1499
sbsS's3ePointer.h'
p1500
g304
(g1170
g306
Ntp1501
Rp1502
(dp1503
g1174
g1175
sg1176
g1222
sg330
S'c:/marmalade/7.4/s3e/h/s3ePointer.h'
p1504
sbsS'IwManaged.h'
p1505
g304
(g1170
g306
Ntp1506
Rp1507
(dp1508
g1174
g1047
sg1176
g1186
sg330
g1116
sbsS'stdiostream.h'
p1509
g304
(g1170
g306
Ntp1510
Rp1511
(dp1512
g1174
g1175
sg1176
g1177
sg330
S'c:/marmalade/7.4/s3e/h/std/c++/stdiostream.h'
p1513
sbsS'sstream'
p1514
g304
(g1170
g306
Ntp1515
Rp1516
(dp1517
g1174
g1175
sg1176
g1177
sg330
S'c:/marmalade/7.4/s3e/h/std/c++/sstream'
p1518
sbsS'alloca.h'
p1519
g304
(g1170
g306
Ntp1520
Rp1521
(dp1522
g1174
g1175
sg1176
g1200
sg330
S'c:/marmalade/7.4/s3e/h/std/alloca.h'
p1523
sbsS'jerror.h'
p1524
g304
(g1170
g306
Ntp1525
Rp1526
(dp1527
g1174
g990
sg1176
g1323
sg330
g988
sbsS's3eCompass.h'
p1528
g304
(g1170
g306
Ntp1529
Rp1530
(dp1531
g1174
g1175
sg1176
g1222
sg330
S'c:/marmalade/7.4/s3e/h/s3eCompass.h'
p1532
sbsS'prctl.h'
p1533
g304
(g1170
g306
Ntp1534
Rp1535
(dp1536
g1174
g1175
sg1176
g1369
sg330
S'c:/marmalade/7.4/s3e/h/std/sys/prctl.h'
p1537
sbsS'netdb.h'
p1538
g304
(g1170
g306
Ntp1539
Rp1540
(dp1541
g1174
g1175
sg1176
g1200
sg330
S'c:/marmalade/7.4/s3e/h/std/netdb.h'
p1542
sbsS's3eOSExec.h'
p1543
g304
(g1170
g306
Ntp1544
Rp1545
(dp1546
g1174
g1175
sg1176
g1338
sg330
S'c:/marmalade/7.4/s3e/h/ext/s3eOSExec.h'
p1547
sbsS'locale'
p1548
g304
(g1170
g306
Ntp1549
Rp1550
(dp1551
g1174
g1175
sg1176
g1177
sg330
S'c:/marmalade/7.4/s3e/h/std/c++/locale'
p1552
sbsS'zconf.h'
p1553
g304
(g1170
g306
Ntp1554
Rp1555
(dp1556
g1174
g1152
sg1176
(lp1557
g1147
ag975
asg330
g1150
sbsS'cderror.h'
p1558
g304
(g1170
g306
Ntp1559
Rp1560
(dp1561
g1174
g990
sg1176
g1323
sg330
g1005
sbsS'climits'
p1562
g304
(g1170
g306
Ntp1563
Rp1564
(dp1565
g1174
g1175
sg1176
g1177
sg330
S'c:/marmalade/7.4/s3e/h/std/c++/climits'
p1566
sbsS's3e.config.txt'
p1567
g304
(g1170
g306
Ntp1568
Rp1569
(dp1570
g1174
g1175
sg1176
g1222
sg330
S'c:/marmalade/7.4/s3e/s3e.config.txt'
p1571
sbsS'numeric'
p1572
g304
(g1170
g306
Ntp1573
Rp1574
(dp1575
g1174
g1175
sg1176
g1177
sg330
S'c:/marmalade/7.4/s3e/h/std/c++/numeric'
p1576
sbsS'utime.h'
p1577
g304
(g1170
g306
Ntp1578
Rp1579
(dp1580
g1174
g1175
sg1176
g1200
sg330
S'c:/marmalade/7.4/s3e/h/std/utime.h'
p1581
sbsS'cdjpeg.h'
p1582
g304
(g1170
g306
Ntp1583
Rp1584
(dp1585
g1174
g990
sg1176
g1323
sg330
g997
sbsS'cstdio'
p1586
g304
(g1170
g306
Ntp1587
Rp1588
(dp1589
g1174
g1175
sg1176
g1177
sg330
S'c:/marmalade/7.4/s3e/h/std/c++/cstdio'
p1590
sbsS's3eVibra.h'
p1591
g304
(g1170
g306
Ntp1592
Rp1593
(dp1594
g1174
g1175
sg1176
g1222
sg330
S'c:/marmalade/7.4/s3e/h/s3eVibra.h'
p1595
sbsS'jversion.h'
p1596
g304
(g1170
g306
Ntp1597
Rp1598
(dp1599
g1174
g990
sg1176
g1323
sg330
g1009
sbsS'fnmatch.h'
p1600
g304
(g1170
g306
Ntp1601
Rp1602
(dp1603
g1174
g1175
sg1176
g1200
sg330
S'c:/marmalade/7.4/s3e/h/std/fnmatch.h'
p1604
sbsS'jdhuff.h'
p1605
g304
(g1170
g306
Ntp1606
Rp1607
(dp1608
g1174
g990
sg1176
g1323
sg330
g1013
sbsS'stack'
p1609
g304
(g1170
g306
Ntp1610
Rp1611
(dp1612
g1174
g1175
sg1176
g1177
sg330
S'c:/marmalade/7.4/s3e/h/std/c++/stack'
p1613
sbsS'sendfile.h'
p1614
g304
(g1170
g306
Ntp1615
Rp1616
(dp1617
g1174
g1175
sg1176
g1369
sg330
S'c:/marmalade/7.4/s3e/h/std/sys/sendfile.h'
p1618
sbsS'strings.h'
p1619
g304
(g1170
g306
Ntp1620
Rp1621
(dp1622
g1174
g1175
sg1176
g1200
sg330
S'c:/marmalade/7.4/s3e/h/std/strings.h'
p1623
sbsS'inttypes.h'
p1624
g304
(g1170
g306
Ntp1625
Rp1626
(dp1627
g1174
g1175
sg1176
g1200
sg330
S'c:/marmalade/7.4/s3e/h/std/inttypes.h'
p1628
sbsS's3eAudio.h'
p1629
g304
(g1170
g306
Ntp1630
Rp1631
(dp1632
g1174
g1175
sg1176
g1222
sg330
S'c:/marmalade/7.4/s3e/h/s3eAudio.h'
p1633
sbsS'gl.h'
p1634
g304
(g1170
g306
Ntp1635
Rp1636
(dp1637
g1174
g1175
sg1176
(lp1638
g1178
aS'GL'
p1639
aS'GLES 1.x'
p1640
asg330
S'c:/marmalade/7.4/s3e/h/GLES/gl.h'
p1641
sbsS'IwImage.h'
p1642
g304
(g1170
g306
Ntp1643
Rp1644
(dp1645
g1174
g1047
sg1176
g1186
sg330
g1102
sbsS's3eImagePicker.h'
p1646
g304
(g1170
g306
Ntp1647
Rp1648
(dp1649
g1174
g1175
sg1176
g1338
sg330
S'c:/marmalade/7.4/s3e/h/ext/s3eImagePicker.h'
p1650
sbsS's3eExt.h'
p1651
g304
(g1170
g306
Ntp1652
Rp1653
(dp1654
g1174
g1175
sg1176
g1222
sg330
S'c:/marmalade/7.4/s3e/h/s3eExt.h'
p1655
sbsS'transupp.h'
p1656
g304
(g1170
g306
Ntp1657
Rp1658
(dp1659
g1174
g990
sg1176
g1323
sg330
g1011
sbsS'IwMath.h'
p1660
g304
(g1170
g306
Ntp1661
Rp1662
(dp1663
g1174
g1047
sg1176
g1186
sg330
g1122
sbsS's3eSurface.h'
p1664
g304
(g1170
g306
Ntp1665
Rp1666
(dp1667
g1174
g1175
sg1176
g1222
sg330
S'c:/marmalade/7.4/s3e/h/s3eSurface.h'
p1668
sbsS'time.h'
p1669
g304
(g1170
g306
Ntp1670
Rp1671
(dp1672
g1174
g1175
sg1176
g1200
sg330
S'c:/marmalade/7.4/s3e/h/std/time.h'
p1673
sbsS'stdlib.h'
p1674
g304
(g1170
g306
Ntp1675
Rp1676
(dp1677
g1174
g1175
sg1176
g1200
sg330
S'c:/marmalade/7.4/s3e/h/std/stdlib.h'
p1678
sbsS'gl3ext.h'
p1679
g304
(g1170
g306
Ntp1680
Rp1681
(dp1682
g1174
g1175
sg1176
(lp1683
g1178
aS'GL'
p1684
aS'GLES 3.0'
p1685
asg330
S'c:/marmalade/7.4/s3e/h/GLES3/gl3ext.h'
p1686
sbsS'stddef.h'
p1687
g304
(g1170
g306
Ntp1688
Rp1689
(dp1690
g1174
g1175
sg1176
g1200
sg330
S'c:/marmalade/7.4/s3e/h/std/stddef.h'
p1691
sbsS's3eWindow.h'
p1692
g304
(g1170
g306
Ntp1693
Rp1694
(dp1695
g1174
g1175
sg1176
g1338
sg330
S'c:/marmalade/7.4/s3e/h/ext/s3eWindow.h'
p1696
sbsS's3eMetrics.h'
p1697
g304
(g1170
g306
Ntp1698
Rp1699
(dp1700
g1174
g1175
sg1176
g1338
sg330
S'c:/marmalade/7.4/s3e/h/ext/s3eMetrics.h'
p1701
sbsS'IwCopyingPtr.h'
p1702
g304
(g1170
g306
Ntp1703
Rp1704
(dp1705
g1174
g1047
sg1176
g1186
sg330
g1052
sbsS'IwBuffer.h'
p1706
g304
(g1170
g306
Ntp1707
Rp1708
(dp1709
g1174
g1047
sg1176
g1186
sg330
g1058
sbsS'app.config.txt'
p1710
g304
(g1170
g306
Ntp1711
Rp1712
(dp1713
g1174
(dp1714
sg1176
g4
sg330
S'c:/Users/Josh/Documents/GameThrive/SDK/Marmalade/GameThriveExample/data/app.config.txt'
p1715
sbsS'iostream'
p1716
g304
(g1170
g306
Ntp1717
Rp1718
(dp1719
g1174
g1175
sg1176
g1177
sg330
S'c:/marmalade/7.4/s3e/h/std/c++/iostream'
p1720
sbsS'png.h'
p1721
g304
(g1170
g306
Ntp1722
Rp1723
(dp1724
g1174
g979
sg1176
(lp1725
g973
ag975
asg330
g977
sbsS'glplatform.h'
p1726
g304
(g1170
g306
Ntp1727
Rp1728
(dp1729
g1174
g1175
sg1176
g1638
sg330
S'c:/marmalade/7.4/s3e/h/GLES/glplatform.h'
p1730
sbsS'app.icf'
p1731
g304
(g1170
g306
Ntp1732
Rp1733
(dp1734
g1174
(dp1735
sg1176
g4
sg330
S'c:/Users/Josh/Documents/GameThrive/SDK/Marmalade/GameThriveExample/data/app.icf'
p1736
sbsS'ucontext.h'
p1737
g304
(g1170
g306
Ntp1738
Rp1739
(dp1740
g1174
g1175
sg1176
g1200
sg330
S'c:/marmalade/7.4/s3e/h/std/ucontext.h'
p1741
sbsS's3e-default.mkf'
p1742
g304
(g1170
g306
Ntp1743
Rp1744
(dp1745
g1174
g1166
sg1176
(lp1746
g1162
asg330
g1164
sbsS'setjmp_win32.h'
p1747
g304
(g1170
g306
Ntp1748
Rp1749
(dp1750
g1174
g1175
sg1176
g1200
sg330
S'c:/marmalade/7.4/s3e/h/std/setjmp_win32.h'
p1751
sbsS'unistd.h'
p1752
g304
(g1170
g306
Ntp1753
Rp1754
(dp1755
g1174
g1175
sg1176
g1200
sg330
S'c:/marmalade/7.4/s3e/h/std/unistd.h'
p1756
sbsS's3eSecureStorage.h'
p1757
g304
(g1170
g306
Ntp1758
Rp1759
(dp1760
g1174
g1175
sg1176
g1222
sg330
S'c:/marmalade/7.4/s3e/h/s3eSecureStorage.h'
p1761
sbsS'string.h'
p1762
g304
(g1170
g306
Ntp1763
Rp1764
(dp1765
g1174
g1175
sg1176
g1200
sg330
S'c:/marmalade/7.4/s3e/h/std/string.h'
p1766
sbsS'IwResource.h'
p1767
g304
(g1170
g306
Ntp1768
Rp1769
(dp1770
g1174
g1047
sg1176
g1186
sg330
g1062
sbsS'libjpeg.mkf'
p1771
g304
(g1170
g306
Ntp1772
Rp1773
(dp1774
g1174
g1019
sg1176
(lp1775
g985
asg330
g1017
sbsS'IwChar.h'
p1776
g304
(g1170
g306
Ntp1777
Rp1778
(dp1779
g1174
g1047
sg1176
g1186
sg330
g1110
sbsS'streambuf.h'
p1780
g304
(g1170
g306
Ntp1781
Rp1782
(dp1783
g1174
g1175
sg1176
g1177
sg330
S'c:/marmalade/7.4/s3e/h/std/c++/streambuf.h'
p1784
sbsS'IwRuntime.h'
p1785
g304
(g1170
g306
Ntp1786
Rp1787
(dp1788
g1174
g1047
sg1176
g1186
sg330
g1092
sbsS'float.h'
p1789
g304
(g1170
g306
Ntp1790
Rp1791
(dp1792
g1174
g1175
sg1176
g1200
sg330
S'c:/marmalade/7.4/s3e/h/std/float.h'
p1793
sbsS'iomanip.h'
p1794
g304
(g1170
g306
Ntp1795
Rp1796
(dp1797
g1174
g1175
sg1176
g1177
sg330
S'c:/marmalade/7.4/s3e/h/std/c++/iomanip.h'
p1798
sbsS'limits'
p1799
g304
(g1170
g306
Ntp1800
Rp1801
(dp1802
g1174
g1175
sg1176
g1177
sg330
S'c:/marmalade/7.4/s3e/h/std/c++/limits'
p1803
sbsS'gl2platform.h'
p1804
g304
(g1170
g306
Ntp1805
Rp1806
(dp1807
g1174
g1175
sg1176
g1444
sg330
S'c:/marmalade/7.4/s3e/h/GLES2/gl2platform.h'
p1808
sbsS'fstream'
p1809
g304
(g1170
g306
Ntp1810
Rp1811
(dp1812
g1174
g1175
sg1176
g1177
sg330
S'c:/marmalade/7.4/s3e/h/std/c++/fstream'
p1813
sbsS'queue'
p1814
g304
(g1170
g306
Ntp1815
Rp1816
(dp1817
g1174
g1175
sg1176
g1177
sg330
S'c:/marmalade/7.4/s3e/h/std/c++/queue'
p1818
sbsS'wchar.h'
p1819
g304
(g1170
g306
Ntp1820
Rp1821
(dp1822
g1174
g1175
sg1176
g1200
sg330
S'c:/marmalade/7.4/s3e/h/std/wchar.h'
p1823
sbsS's3eContacts.h'
p1824
g304
(g1170
g306
Ntp1825
Rp1826
(dp1827
g1174
g1175
sg1176
g1222
sg330
S'c:/marmalade/7.4/s3e/h/s3eContacts.h'
p1828
sbsS'IwKeymap.h'
p1829
g304
(g1170
g306
Ntp1830
Rp1831
(dp1832
g1174
g1047
sg1176
g1186
sg330
g1060
sbsS'IwDebug.h'
p1833
g304
(g1170
g306
Ntp1834
Rp1835
(dp1836
g1174
g1047
sg1176
g1186
sg330
g1054
sbsS'IwVariableBitField.h'
p1837
g304
(g1170
g306
Ntp1838
Rp1839
(dp1840
g1174
g1047
sg1176
g1186
sg330
g1056
sbsS's3eCameraCapture.h'
p1841
g304
(g1170
g306
Ntp1842
Rp1843
(dp1844
g1174
g1175
sg1176
g1338
sg330
S'c:/marmalade/7.4/s3e/h/ext/s3eCameraCapture.h'
p1845
sbsS'eglext.h'
p1846
g304
(g1170
g306
Ntp1847
Rp1848
(dp1849
g1174
g1175
sg1176
(lp1850
g1178
aS'GL'
p1851
aS'EGL'
p1852
asg330
S'c:/marmalade/7.4/s3e/h/EGL/eglext.h'
p1853
sbsS'time_1.h'
p1854
g304
(g1170
g306
Ntp1855
Rp1856
(dp1857
g1174
g1175
sg1176
g1369
sg330
S'c:/marmalade/7.4/s3e/h/std/sys/time.h'
p1858
sbsS'IwTextParser.h'
p1859
g304
(g1170
g306
Ntp1860
Rp1861
(dp1862
g1174
g1047
sg1176
g1186
sg330
g1045
sbsS'IwDivTable.h'
p1863
g304
(g1170
g306
Ntp1864
Rp1865
(dp1866
g1174
g1047
sg1176
g1186
sg330
g1143
sbsS's3eTimer.h'
p1867
g304
(g1170
g306
Ntp1868
Rp1869
(dp1870
g1174
g1175
sg1176
g1222
sg330
S'c:/marmalade/7.4/s3e/h/s3eTimer.h'
p1871
sbsS'socket.h'
p1872
g304
(g1170
g306
Ntp1873
Rp1874
(dp1875
g1174
g1175
sg1176
g1369
sg330
S'c:/marmalade/7.4/s3e/h/std/sys/socket.h'
p1876
sbsS'IwSerialise.h'
p1877
g304
(g1170
g306
Ntp1878
Rp1879
(dp1880
g1174
g1047
sg1176
g1186
sg330
g1078
sbsS'malloc.h'
p1881
g304
(g1170
g306
Ntp1882
Rp1883
(dp1884
g1174
g1175
sg1176
g1200
sg330
S'c:/marmalade/7.4/s3e/h/std/malloc.h'
p1885
sbsS'signal_1.h'
p1886
g304
(g1170
g306
Ntp1887
Rp1888
(dp1889
g1174
g1175
sg1176
g1369
sg330
S'c:/marmalade/7.4/s3e/h/std/sys/signal.h'
p1890
sbsS'cstdarg'
p1891
g304
(g1170
g306
Ntp1892
Rp1893
(dp1894
g1174
g1175
sg1176
g1177
sg330
S'c:/marmalade/7.4/s3e/h/std/c++/cstdarg'
p1895
sbsS'typeinfo'
p1896
g304
(g1170
g306
Ntp1897
Rp1898
(dp1899
g1174
g1175
sg1176
g1177
sg330
S'c:/marmalade/7.4/s3e/h/std/c++/typeinfo'
p1900
sbsS'stdarg.h'
p1901
g304
(g1170
g306
Ntp1902
Rp1903
(dp1904
g1174
g1175
sg1176
g1200
sg330
S'c:/marmalade/7.4/s3e/h/std/stdarg.h'
p1905
sbsS'strstream.h'
p1906
g304
(g1170
g306
Ntp1907
Rp1908
(dp1909
g1174
g1175
sg1176
g1177
sg330
S'c:/marmalade/7.4/s3e/h/std/c++/strstream.h'
p1910
sbsS'shm.h'
p1911
g304
(g1170
g306
Ntp1912
Rp1913
(dp1914
g1174
g1175
sg1176
g1369
sg330
S'c:/marmalade/7.4/s3e/h/std/sys/shm.h'
p1915
sbsS'jpegint.h'
p1916
g304
(g1170
g306
Ntp1917
Rp1918
(dp1919
g1174
g990
sg1176
g1323
sg330
g993
sbsS'set'
p1920
g304
(g1170
g306
Ntp1921
Rp1922
(dp1923
g1174
g1175
sg1176
g1177
sg330
S'c:/marmalade/7.4/s3e/h/std/c++/set'
p1924
sbsS'endian.h'
p1925
g304
(g1170
g306
Ntp1926
Rp1927
(dp1928
g1174
g1175
sg1176
g1200
sg330
S'c:/marmalade/7.4/s3e/h/std/endian.h'
p1929
sbsS'gl2ext.h'
p1930
g304
(g1170
g306
Ntp1931
Rp1932
(dp1933
g1174
g1175
sg1176
g1444
sg330
S'c:/marmalade/7.4/s3e/h/GLES2/gl2ext.h'
p1934
sbsS'setjmp.h'
p1935
g304
(g1170
g306
Ntp1936
Rp1937
(dp1938
g1174
g1175
sg1176
g1200
sg330
S'c:/marmalade/7.4/s3e/h/std/setjmp.h'
p1939
sbsS'mem.h'
p1940
g304
(g1170
g306
Ntp1941
Rp1942
(dp1943
g1174
g1175
sg1176
g1177
sg330
S'c:/marmalade/7.4/s3e/h/std/c++/mem.h'
p1944
sbsS'un.h'
p1945
g304
(g1170
g306
Ntp1946
Rp1947
(dp1948
g1174
g1175
sg1176
g1369
sg330
S'c:/marmalade/7.4/s3e/h/std/sys/un.h'
p1949
sbsS'temp_defines_debug.h'
p1950
g304
(g1170
g306
Ntp1951
Rp1952
(dp1953
g1174
(lp1954
sg1176
(lp1955
S"'generated files'"
p1956
asg330
S'c:/Users/Josh/Documents/GameThrive/SDK/Marmalade/GameThriveExample/build_gamethriveexample_vc12/temp_defines_debug.h'
p1957
sbsS's3eCompression.h'
p1958
g304
(g1170
g306
Ntp1959
Rp1960
(dp1961
g1174
g1175
sg1176
g1222
sg330
S'c:/marmalade/7.4/s3e/h/s3eCompression.h'
p1962
sbsS's3eSound.h'
p1963
g304
(g1170
g306
Ntp1964
Rp1965
(dp1966
g1174
g1175
sg1176
g1222
sg330
S'c:/marmalade/7.4/s3e/h/s3eSound.h'
p1967
sbsS'glob.h'
p1968
g304
(g1170
g306
Ntp1969
Rp1970
(dp1971
g1174
g1175
sg1176
g1200
sg330
S'c:/marmalade/7.4/s3e/h/std/glob.h'
p1972
sbsS'IwClassFactory.h'
p1973
g304
(g1170
g306
Ntp1974
Rp1975
(dp1976
g1174
g1047
sg1176
g1186
sg330
g1080
sbsS'file.h'
p1977
g304
(g1170
g306
Ntp1978
Rp1979
(dp1980
g1174
g1175
sg1176
g1369
sg330
S'c:/marmalade/7.4/s3e/h/std/sys/file.h'
p1981
sbsS's3eIOSBackgroundAudio.h'
p1982
g304
(g1170
g306
Ntp1983
Rp1984
(dp1985
g1174
g1175
sg1176
g1338
sg330
S'c:/marmalade/7.4/s3e/h/ext/s3eIOSBackgroundAudio.h'
p1986
sbsS'IwOptimiseThumb.h'
p1987
g304
(g1170
g306
Ntp1988
Rp1989
(dp1990
g1174
g1047
sg1176
g1186
sg330
g1135
sbsS'cstring'
p1991
g304
(g1170
g306
Ntp1992
Rp1993
(dp1994
g1174
g1175
sg1176
g1177
sg330
S'c:/marmalade/7.4/s3e/h/std/c++/cstring'
p1995
sbsS'exception.h'
p1996
g304
(g1170
g306
Ntp1997
Rp1998
(dp1999
g1174
g1175
sg1176
g1177
sg330
S'c:/marmalade/7.4/s3e/h/std/c++/exception.h'
p2000
sbsS's3eCamera.h'
p2001
g304
(g1170
g306
Ntp2002
Rp2003
(dp2004
g1174
g1175
sg1176
g1222
sg330
S'c:/marmalade/7.4/s3e/h/s3eCamera.h'
p2005
sbsS'jconfig.h'
p2006
g304
(g1170
g306
Ntp2007
Rp2008
(dp2009
g1174
g990
sg1176
g1323
sg330
g1001
sbsS'clocale'
p2010
g304
(g1170
g306
Ntp2011
Rp2012
(dp2013
g1174
g1175
sg1176
g1177
sg330
S'c:/marmalade/7.4/s3e/h/std/c++/clocale'
p2014
sbsS'memory'
p2015
g304
(g1170
g306
Ntp2016
Rp2017
(dp2018
g1174
g1175
sg1176
g1177
sg330
S'c:/marmalade/7.4/s3e/h/std/c++/memory'
p2019
sbsS'egl.h'
p2020
g304
(g1170
g306
Ntp2021
Rp2022
(dp2023
g1174
g1175
sg1176
g1850
sg330
S'c:/marmalade/7.4/s3e/h/EGL/egl.h'
p2024
sbsS'egl_1.h'
p2025
g304
(g1170
g306
Ntp2026
Rp2027
(dp2028
g1174
g1175
sg1176
g1638
sg330
S'c:/marmalade/7.4/s3e/h/GLES/egl.h'
p2029
sbsS'IwMemManagerDL.h'
p2030
g304
(g1170
g306
Ntp2031
Rp2032
(dp2033
g1174
g1047
sg1176
g1186
sg330
g1141
sbsS'iwutil.config.txt'
p2034
g304
(g1170
g306
Ntp2035
Rp2036
(dp2037
g1174
g1047
sg1176
g1186
sg330
g1086
sbsS'vector'
p2038
g304
(g1170
g306
Ntp2039
Rp2040
(dp2041
g1174
g1175
sg1176
g1177
sg330
S'c:/marmalade/7.4/s3e/h/std/c++/vector'
p2042
sbsS'deque'
p2043
g304
(g1170
g306
Ntp2044
Rp2045
(dp2046
g1174
g1175
sg1176
g1177
sg330
S'c:/marmalade/7.4/s3e/h/std/c++/deque'
p2047
sbsS'IwString.h'
p2048
g304
(g1170
g306
Ntp2049
Rp2050
(dp2051
g1174
g1047
sg1176
g1186
sg330
g1126
sbsS's3eCrypto.h'
p2052
g304
(g1170
g306
Ntp2053
Rp2054
(dp2055
g1174
g1175
sg1176
g1222
sg330
S'c:/marmalade/7.4/s3e/h/s3eCrypto.h'
p2056
sbsS'zlib.h'
p2057
g304
(g1170
g306
Ntp2058
Rp2059
(dp2060
g1174
g1152
sg1176
g1557
sg330
g1153
sbsS's3eSMS.h'
p2061
g304
(g1170
g306
Ntp2062
Rp2063
(dp2064
g1174
g1175
sg1176
g1338
sg330
S'c:/marmalade/7.4/s3e/h/ext/s3eSMS.h'
p2065
sbsS'cctype'
p2066
g304
(g1170
g306
Ntp2067
Rp2068
(dp2069
g1174
g1175
sg1176
g1177
sg330
S'c:/marmalade/7.4/s3e/h/std/c++/cctype'
p2070
sbsS'limits.h'
p2071
g304
(g1170
g306
Ntp2072
Rp2073
(dp2074
g1174
g1175
sg1176
g1200
sg330
S'c:/marmalade/7.4/s3e/h/std/limits.h'
p2075
sbsS'stdexcept'
p2076
g304
(g1170
g306
Ntp2077
Rp2078
(dp2079
g1174
g1175
sg1176
g1177
sg330
S'c:/marmalade/7.4/s3e/h/std/c++/stdexcept'
p2080
sbsS'fcntl.h'
p2081
g304
(g1170
g306
Ntp2082
Rp2083
(dp2084
g1174
g1175
sg1176
g1200
sg330
S'c:/marmalade/7.4/s3e/h/std/fcntl.h'
p2085
sbsS'sigcontext.h'
p2086
g304
(g1170
g306
Ntp2087
Rp2088
(dp2089
g1174
g1175
sg1176
g1200
sg330
S'c:/marmalade/7.4/s3e/h/std/sigcontext.h'
p2090
sbsS'iwutil.mkf'
p2091
g304
(g1170
g306
Ntp2092
Rp2093
(dp2094
g1174
g1130
sg1176
g1186
sg330
g1128
sbsS'csignal'
p2095
g304
(g1170
g306
Ntp2096
Rp2097
(dp2098
g1174
g1175
sg1176
g1177
sg330
S'c:/marmalade/7.4/s3e/h/std/c++/csignal'
p2099
sbsS'ostream.h'
p2100
g304
(g1170
g306
Ntp2101
Rp2102
(dp2103
g1174
g1175
sg1176
g1177
sg330
S'c:/marmalade/7.4/s3e/h/std/c++/ostream.h'
p2104
sbsS'types.h'
p2105
g304
(g1170
g306
Ntp2106
Rp2107
(dp2108
g1174
g1175
sg1176
g1369
sg330
S'c:/marmalade/7.4/s3e/h/std/sys/types.h'
p2109
sbsS'pthread_types.h'
p2110
g304
(g1170
g306
Ntp2111
Rp2112
(dp2113
g1174
g1175
sg1176
g1200
sg330
S'c:/marmalade/7.4/s3e/h/std/pthread_types.h'
p2114
sbsS'ifaddrs.h'
p2115
g304
(g1170
g306
Ntp2116
Rp2117
(dp2118
g1174
g1175
sg1176
g1200
sg330
S'c:/marmalade/7.4/s3e/h/std/ifaddrs.h'
p2119
sbsS'memory.h'
p2120
g304
(g1170
g306
Ntp2121
Rp2122
(dp2123
g1174
g1175
sg1176
g1200
sg330
S'c:/marmalade/7.4/s3e/h/std/memory.h'
p2124
sbsS'GameThriveExample.cpp'
p2125
g304
(g1170
g306
Ntp2126
Rp2127
(dp2128
g1174
g1024
sg1176
(lp2129
g1020
asg330
g1022
sbsS'getopt.h'
p2130
g304
(g1170
g306
Ntp2131
Rp2132
(dp2133
g1174
g1175
sg1176
g1200
sg330
S'c:/marmalade/7.4/s3e/h/std/getopt.h'
p2134
sbsS'cmath'
p2135
g304
(g1170
g306
Ntp2136
Rp2137
(dp2138
g1174
g1175
sg1176
g1177
sg330
S'c:/marmalade/7.4/s3e/h/std/c++/cmath'
p2139
sbsS'strstream'
p2140
g304
(g1170
g306
Ntp2141
Rp2142
(dp2143
g1174
g1175
sg1176
g1177
sg330
S'c:/marmalade/7.4/s3e/h/std/c++/strstream'
p2144
sbsS'IwOptimiseARM.h'
p2145
g304
(g1170
g306
Ntp2146
Rp2147
(dp2148
g1174
g1047
sg1176
g1186
sg330
g1100
sbsS'times.h'
p2149
g304
(g1170
g306
Ntp2150
Rp2151
(dp2152
g1174
g1175
sg1176
g1369
sg330
S'c:/marmalade/7.4/s3e/h/std/sys/times.h'
p2153
sbsS'exception'
p2154
g304
(g1170
g306
Ntp2155
Rp2156
(dp2157
g1174
g1175
sg1176
g1177
sg330
S'c:/marmalade/7.4/s3e/h/std/c++/exception'
p2158
sbsS'pthread.h'
p2159
g304
(g1170
g306
Ntp2160
Rp2161
(dp2162
g1174
g1175
sg1176
g1200
sg330
S'c:/marmalade/7.4/s3e/h/std/pthread.h'
p2163
sbsS'IwTextParserITX.h'
p2164
g304
(g1170
g306
Ntp2165
Rp2166
(dp2167
g1174
g1047
sg1176
g1186
sg330
g1066
sbsS'rlocks.h'
p2168
g304
(g1170
g306
Ntp2169
Rp2170
(dp2171
g1174
g1175
sg1176
g1177
sg330
S'c:/marmalade/7.4/s3e/h/std/c++/rlocks.h'
p2172
sbsS'functional'
p2173
g304
(g1170
g306
Ntp2174
Rp2175
(dp2176
g1174
g1175
sg1176
g1177
sg330
S'c:/marmalade/7.4/s3e/h/std/c++/functional'
p2177
sbsS'ioctl.h'
p2178
g304
(g1170
g306
Ntp2179
Rp2180
(dp2181
g1174
g1175
sg1176
g1369
sg330
S'c:/marmalade/7.4/s3e/h/std/sys/ioctl.h'
p2182
sbsS'rope'
p2183
g304
(g1170
g306
Ntp2184
Rp2185
(dp2186
g1174
g1175
sg1176
g1177
sg330
S'c:/marmalade/7.4/s3e/h/std/c++/rope'
p2187
sbsS's3eAndroidJNI.h'
p2188
g304
(g1170
g306
Ntp2189
Rp2190
(dp2191
g1174
g1175
sg1176
g1338
sg330
S'c:/marmalade/7.4/s3e/h/ext/s3eAndroidJNI.h'
p2192
sbsS'jinclude.h'
p2193
g304
(g1170
g306
Ntp2194
Rp2195
(dp2196
g1174
g990
sg1176
g1323
sg330
g1003
sbsS'IwEvent.h'
p2197
g304
(g1170
g306
Ntp2198
Rp2199
(dp2200
g1174
g1047
sg1176
g1186
sg330
g1120
sbsS'IwTypes.h'
p2201
g304
(g1170
g306
Ntp2202
Rp2203
(dp2204
g1174
g1047
sg1176
g1186
sg330
g1082
sbsS's3eSocket.h'
p2205
g304
(g1170
g306
Ntp2206
Rp2207
(dp2208
g1174
g1175
sg1176
g1222
sg330
S'c:/marmalade/7.4/s3e/h/s3eSocket.h'
p2209
sbsS'IwOptimiseSize.h'
p2210
g304
(g1170
g306
Ntp2211
Rp2212
(dp2213
g1174
g1047
sg1176
g1186
sg330
g1145
sbsS'IwAutoFile.h'
p2214
g304
(g1170
g306
Ntp2215
Rp2216
(dp2217
g1174
g1047
sg1176
g1186
sg330
g1124
sbsS'iconv.h'
p2218
g304
(g1170
g306
Ntp2219
Rp2220
(dp2221
g1174
g1175
sg1176
g1200
sg330
S'c:/marmalade/7.4/s3e/h/std/iconv.h'
p2222
sbsS'ipc.h'
p2223
g304
(g1170
g306
Ntp2224
Rp2225
(dp2226
g1174
g1175
sg1176
g1369
sg330
S'c:/marmalade/7.4/s3e/h/std/sys/ipc.h'
p2227
sbsS's3eDevice.h'
p2228
g304
(g1170
g306
Ntp2229
Rp2230
(dp2231
g1174
g1175
sg1176
g1222
sg330
S'c:/marmalade/7.4/s3e/h/s3eDevice.h'
p2232
sbsS'poll_1.h'
p2233
g304
(g1170
g306
Ntp2234
Rp2235
(dp2236
g1174
g1175
sg1176
g1369
sg330
S'c:/marmalade/7.4/s3e/h/std/sys/poll.h'
p2237
sbsS's3eThread.h'
p2238
g304
(g1170
g306
Ntp2239
Rp2240
(dp2241
g1174
g1175
sg1176
g1222
sg330
S'c:/marmalade/7.4/s3e/h/s3eThread.h'
p2242
sbsS'stl_user_config.h'
p2243
g304
(g1170
g306
Ntp2244
Rp2245
(dp2246
g1174
g1175
sg1176
g1177
sg330
S'c:/marmalade/7.4/s3e/h/std/c++/stl_user_config.h'
p2247
sbsS'IwList.h'
p2248
g304
(g1170
g306
Ntp2249
Rp2250
(dp2251
g1174
g1047
sg1176
g1186
sg330
g1076
sbsS'langinfo.h'
p2252
g304
(g1170
g306
Ntp2253
Rp2254
(dp2255
g1174
g1175
sg1176
g1200
sg330
S'c:/marmalade/7.4/s3e/h/std/langinfo.h'
p2256
sbsS's3edebugHeap.h'
p2257
g304
(g1170
g306
Ntp2258
Rp2259
(dp2260
g1174
g1175
sg1176
g1338
sg330
S'c:/marmalade/7.4/s3e/h/ext/s3edebugHeap.h'
p2261
sbsS'jdct.h'
p2262
g304
(g1170
g306
Ntp2263
Rp2264
(dp2265
g1174
g990
sg1176
g1323
sg330
g1007
sbsS'AirplayVersion.h'
p2266
g304
(g1170
g306
Ntp2267
Rp2268
(dp2269
g1174
g1175
sg1176
g1222
sg330
S'c:/marmalade/7.4/s3e/h/AirplayVersion.h'
p2270
sbsS'jchuff.h'
p2271
g304
(g1170
g306
Ntp2272
Rp2273
(dp2274
g1174
g990
sg1176
g1323
sg330
g999
sbsS'IwProfileMenu.h'
p2275
g304
(g1170
g306
Ntp2276
Rp2277
(dp2278
g1174
g1047
sg1176
g1186
sg330
g1072
sbsS's3eSoundRecord.h'
p2279
g304
(g1170
g306
Ntp2280
Rp2281
(dp2282
g1174
g1175
sg1176
g1222
sg330
S'c:/marmalade/7.4/s3e/h/s3eSoundRecord.h'
p2283
sbsS'gl2extimg.h'
p2284
g304
(g1170
g306
Ntp2285
Rp2286
(dp2287
g1174
g1175
sg1176
g1444
sg330
S'c:/marmalade/7.4/s3e/h/GLES2/gl2extimg.h'
p2288
sbsS'IwFibre.h'
p2289
g304
(g1170
g306
Ntp2290
Rp2291
(dp2292
g1174
g1047
sg1176
g1186
sg330
g1133
sbsS's3eConfig.h'
p2293
g304
(g1170
g306
Ntp2294
Rp2295
(dp2296
g1174
g1175
sg1176
g1222
sg330
S'c:/marmalade/7.4/s3e/h/s3eConfig.h'
p2297
sbsS'IwHashString.h'
p2298
g304
(g1170
g306
Ntp2299
Rp2300
(dp2301
g1174
g1047
sg1176
g1186
sg330
g1070
sbsS'stat.h'
p2302
g304
(g1170
g306
Ntp2303
Rp2304
(dp2305
g1174
g1175
sg1176
g1369
sg330
S'c:/marmalade/7.4/s3e/h/std/sys/stat.h'
p2306
sbsS's3eVersion.h'
p2307
g304
(g1170
g306
Ntp2308
Rp2309
(dp2310
g1174
g1175
sg1176
g1222
sg330
S'c:/marmalade/7.4/s3e/h/s3eVersion.h'
p2311
sbsS'MarmaladeVersion.h'
p2312
g304
(g1170
g306
Ntp2313
Rp2314
(dp2315
g1174
g1175
sg1176
g1222
sg330
S'c:/marmalade/7.4/s3e/h/MarmaladeVersion.h'
p2316
sbsS'utility'
p2317
g304
(g1170
g306
Ntp2318
Rp2319
(dp2320
g1174
g1175
sg1176
g1177
sg330
S'c:/marmalade/7.4/s3e/h/std/c++/utility'
p2321
sbsS'syslog.h'
p2322
g304
(g1170
g306
Ntp2323
Rp2324
(dp2325
g1174
g1175
sg1176
g1200
sg330
S'c:/marmalade/7.4/s3e/h/std/syslog.h'
p2326
sbsS'IwUtilInitTerm.h'
p2327
g304
(g1170
g306
Ntp2328
Rp2329
(dp2330
g1174
g1047
sg1176
g1186
sg330
g1050
sbsS'byteswap.h'
p2331
g304
(g1170
g306
Ntp2332
Rp2333
(dp2334
g1174
g1175
sg1176
g1200
sg330
S'c:/marmalade/7.4/s3e/h/std/byteswap.h'
p2335
sbsS'ios.h'
p2336
g304
(g1170
g306
Ntp2337
Rp2338
(dp2339
g1174
g1175
sg1176
g1177
sg330
S'c:/marmalade/7.4/s3e/h/std/c++/ios.h'
p2340
sbsS'bitset'
p2341
g304
(g1170
g306
Ntp2342
Rp2343
(dp2344
g1174
g1175
sg1176
g1177
sg330
S'c:/marmalade/7.4/s3e/h/std/c++/bitset'
p2345
sbsS'IwImageHelper.h'
p2346
g304
(g1170
g306
Ntp2347
Rp2348
(dp2349
g1174
g1047
sg1176
g1186
sg330
g1104
sbsS's3eKeyboard.h'
p2350
g304
(g1170
g306
Ntp2351
Rp2352
(dp2353
g1174
g1175
sg1176
g1222
sg330
S'c:/marmalade/7.4/s3e/h/s3eKeyboard.h'
p2354
sbsS'pthread_1.h'
p2355
g304
(g1170
g306
Ntp2356
Rp2357
(dp2358
g1174
g1175
sg1176
g1177
sg330
S'c:/marmalade/7.4/s3e/h/std/c++/pthread.h'
p2359
sbsS'IwMemBucket.h'
p2360
g304
(g1170
g306
Ntp2361
Rp2362
(dp2363
g1174
g1047
sg1176
g1186
sg330
g1106
sbsS's3e.mkf'
p2364
g304
(g1170
g306
Ntp2365
Rp2366
(dp2367
g1174
(dp2368
sg1176
g1222
sg330
S'c:/marmalade/7.4/s3e/s3e.mkf'
p2369
sbsS'hash_set'
p2370
g304
(g1170
g306
Ntp2371
Rp2372
(dp2373
g1174
g1175
sg1176
g1177
sg330
S'c:/marmalade/7.4/s3e/h/std/c++/hash_set'
p2374
sbsS's3eTypes.h'
p2375
g304
(g1170
g306
Ntp2376
Rp2377
(dp2378
g1174
g1175
sg1176
g1222
sg330
S'c:/marmalade/7.4/s3e/h/s3eTypes.h'
p2379
sbsS'complex'
p2380
g304
(g1170
g306
Ntp2381
Rp2382
(dp2383
g1174
g1175
sg1176
g1177
sg330
S'c:/marmalade/7.4/s3e/h/std/c++/complex'
p2384
sbsS'jmorecfg.h'
p2385
g304
(g1170
g306
Ntp2386
Rp2387
(dp2388
g1174
g990
sg1176
g1323
sg330
g1015
sbsS'eglplatform.h'
p2389
g304
(g1170
g306
Ntp2390
Rp2391
(dp2392
g1174
g1175
sg1176
g1850
sg330
S'c:/marmalade/7.4/s3e/h/EGL/eglplatform.h'
p2393
sbsS'signal_2.h'
p2394
g304
(g1170
g306
Ntp2395
Rp2396
(dp2397
g1174
g1175
sg1176
g1177
sg330
S'c:/marmalade/7.4/s3e/h/std/c++/signal.h'
p2398
sbsS'stdbool.h'
p2399
g304
(g1170
g306
Ntp2400
Rp2401
(dp2402
g1174
g1175
sg1176
g1200
sg330
S'c:/marmalade/7.4/s3e/h/std/stdbool.h'
p2403
sbsS's3e.icf'
p2404
g304
(g1170
g306
Ntp2405
Rp2406
(dp2407
g1174
g1175
sg1176
g1222
sg330
S'c:/marmalade/7.4/s3e/s3e.icf'
p2408
sbsS'math_gcc.h'
p2409
g304
(g1170
g306
Ntp2410
Rp2411
(dp2412
g1174
g1175
sg1176
g1200
sg330
S'c:/marmalade/7.4/s3e/h/std/math_gcc.h'
p2413
sbsS's3eMemory.h'
p2414
g304
(g1170
g306
Ntp2415
Rp2416
(dp2417
g1174
g1175
sg1176
g1222
sg330
S'c:/marmalade/7.4/s3e/h/s3eMemory.h'
p2418
sbsS'map'
p2419
g304
(g1170
g306
Ntp2420
Rp2421
(dp2422
g1174
g1175
sg1176
g1177
sg330
S'c:/marmalade/7.4/s3e/h/std/c++/map'
p2423
sbsS'sem.h'
p2424
g304
(g1170
g306
Ntp2425
Rp2426
(dp2427
g1174
g1175
sg1176
g1369
sg330
S'c:/marmalade/7.4/s3e/h/std/sys/sem.h'
p2428
sbsS'IwOptimiseSpeed.h'
p2429
g304
(g1170
g306
Ntp2430
Rp2431
(dp2432
g1174
g1047
sg1176
g1186
sg330
g1098
sbsS's3eLicense.h'
p2433
g304
(g1170
g306
Ntp2434
Rp2435
(dp2436
g1174
g1175
sg1176
g1222
sg330
S'c:/marmalade/7.4/s3e/h/s3eLicense.h'
p2437
sbsS'stdio.h'
p2438
g304
(g1170
g306
Ntp2439
Rp2440
(dp2441
g1174
g1175
sg1176
g1200
sg330
S'c:/marmalade/7.4/s3e/h/std/stdio.h'
p2442
sbsS's3eFile.h'
p2443
g304
(g1170
g306
Ntp2444
Rp2445
(dp2446
g1174
g1175
sg1176
g1222
sg330
S'c:/marmalade/7.4/s3e/h/s3eFile.h'
p2447
sbsS'jmemsys.h'
p2448
g304
(g1170
g306
Ntp2449
Rp2450
(dp2451
g1174
g990
sg1176
g1323
sg330
g991
sbsS'ios'
p2452
g304
(g1170
g306
Ntp2453
Rp2454
(dp2455
g1174
g1175
sg1176
g1177
sg330
S'c:/marmalade/7.4/s3e/h/std/c++/ios'
p2456
sbsS'gl3platform.h'
p2457
g304
(g1170
g306
Ntp2458
Rp2459
(dp2460
g1174
g1175
sg1176
g1683
sg330
S'c:/marmalade/7.4/s3e/h/GLES3/gl3platform.h'
p2461
sbsS'msl_string.h'
p2462
g304
(g1170
g306
Ntp2463
Rp2464
(dp2465
g1174
g1175
sg1176
g1177
sg330
S'c:/marmalade/7.4/s3e/h/std/c++/msl_string.h'
p2466
sbsS'select.h'
p2467
g304
(g1170
g306
Ntp2468
Rp2469
(dp2470
g1174
g1175
sg1176
g1369
sg330
S'c:/marmalade/7.4/s3e/h/std/sys/select.h'
p2471
sbsS'cerrno'
p2472
g304
(g1170
g306
Ntp2473
Rp2474
(dp2475
g1174
g1175
sg1176
g1177
sg330
S'c:/marmalade/7.4/s3e/h/std/c++/cerrno'
p2476
sbsS'slist'
p2477
g304
(g1170
g306
Ntp2478
Rp2479
(dp2480
g1174
g1175
sg1176
g1177
sg330
S'c:/marmalade/7.4/s3e/h/std/c++/slist'
p2481
sbsS'cstdlib'
p2482
g304
(g1170
g306
Ntp2483
Rp2484
(dp2485
g1174
g1175
sg1176
g1177
sg330
S'c:/marmalade/7.4/s3e/h/std/c++/cstdlib'
p2486
sbsS's3eLocation.h'
p2487
g304
(g1170
g306
Ntp2488
Rp2489
(dp2490
g1174
g1175
sg1176
g1222
sg330
S'c:/marmalade/7.4/s3e/h/s3eLocation.h'
p2491
sbsS'zlib.mkf'
p2492
g304
(g1170
g306
Ntp2493
Rp2494
(dp2495
g1174
g1157
sg1176
(lp2496
g1147
asg330
g1155
sbsS'resource.h'
p2497
g304
(g1170
g306
Ntp2498
Rp2499
(dp2500
g1174
g1175
sg1176
g1369
sg330
S'c:/marmalade/7.4/s3e/h/std/sys/resource.h'
p2501
sbsS'pwd.h'
p2502
g304
(g1170
g306
Ntp2503
Rp2504
(dp2505
g1174
g1175
sg1176
g1200
sg330
S'c:/marmalade/7.4/s3e/h/std/pwd.h'
p2506
sbsS'signal.h'
p2507
g304
(g1170
g306
Ntp2508
Rp2509
(dp2510
g1174
g1175
sg1176
g1200
sg330
S'c:/marmalade/7.4/s3e/h/std/signal.h'
p2511
sbsS's3eGameThrive.h'
p2512
g304
(g1170
g306
Ntp2513
Rp2514
(dp2515
g1174
g1033
sg1176
g1360
sg330
g1039
sbsS'csetjmp'
p2516
g304
(g1170
g306
Ntp2517
Rp2518
(dp2519
g1174
g1175
sg1176
g1177
sg330
S'c:/marmalade/7.4/s3e/h/std/c++/csetjmp'
p2520
sbsS's3eLibrary.h'
p2521
g304
(g1170
g306
Ntp2522
Rp2523
(dp2524
g1174
g1175
sg1176
g1338
sg330
S'c:/marmalade/7.4/s3e/h/ext/s3eLibrary.h'
p2525
sbsS'libpng.mkf'
p2526
g304
(g1170
g306
Ntp2527
Rp2528
(dp2529
g1174
g984
sg1176
(lp2530
g973
asg330
g982
sbsS'algorithm'
p2531
g304
(g1170
g306
Ntp2532
Rp2533
(dp2534
g1174
g1175
sg1176
g1177
sg330
S'c:/marmalade/7.4/s3e/h/std/c++/algorithm'
p2535
sbsS'IwMemBucketHelpers.h'
p2536
g304
(g1170
g306
Ntp2537
Rp2538
(dp2539
g1174
g1047
sg1176
g1186
sg330
g1094
sbsS's3eHash.h'
p2540
g304
(g1170
g306
Ntp2541
Rp2542
(dp2543
g1174
g1175
sg1176
g1222
sg330
S'c:/marmalade/7.4/s3e/h/s3eHash.h'
p2544
sbsS'new.h'
p2545
g304
(g1170
g306
Ntp2546
Rp2547
(dp2548
g1174
g1175
sg1176
g1177
sg330
S'c:/marmalade/7.4/s3e/h/std/c++/new.h'
p2549
sbsS'math.h'
p2550
g304
(g1170
g306
Ntp2551
Rp2552
(dp2553
g1174
g1175
sg1176
g1200
sg330
S'c:/marmalade/7.4/s3e/h/std/math.h'
p2554
sbsS's3eClipboard.h'
p2555
g304
(g1170
g306
Ntp2556
Rp2557
(dp2558
g1174
g1175
sg1176
g1222
sg330
S'c:/marmalade/7.4/s3e/h/s3eClipboard.h'
p2559
sbsS'streambuf'
p2560
g304
(g1170
g306
Ntp2561
Rp2562
(dp2563
g1174
g1175
sg1176
g1177
sg330
S'c:/marmalade/7.4/s3e/h/std/c++/streambuf'
p2564
sbsS's3eDebug.h'
p2565
g304
(g1170
g306
Ntp2566
Rp2567
(dp2568
g1174
g1175
sg1176
g1222
sg330
S'c:/marmalade/7.4/s3e/h/s3eDebug.h'
p2569
sbsS's3eEMail.h'
p2570
g304
(g1170
g306
Ntp2571
Rp2572
(dp2573
g1174
g1175
sg1176
g1338
sg330
S'c:/marmalade/7.4/s3e/h/ext/s3eEMail.h'
p2574
sbsS'uio.h'
p2575
g304
(g1170
g306
Ntp2576
Rp2577
(dp2578
g1174
g1175
sg1176
g1369
sg330
S'c:/marmalade/7.4/s3e/h/std/sys/uio.h'
p2579
sbsS'glext.h'
p2580
g304
(g1170
g306
Ntp2581
Rp2582
(dp2583
g1174
g1175
sg1176
g1638
sg330
S'c:/marmalade/7.4/s3e/h/GLES/glext.h'
p2584
sbsS's3eVideo.h'
p2585
g304
(g1170
g306
Ntp2586
Rp2587
(dp2588
g1174
g1175
sg1176
g1222
sg330
S'c:/marmalade/7.4/s3e/h/s3eVideo.h'
p2589
sbsS'pngconf.h'
p2590
g304
(g1170
g306
Ntp2591
Rp2592
(dp2593
g1174
g979
sg1176
g1725
sg330
g980
sbsS'IwUncopyable.h'
p2594
g304
(g1170
g306
Ntp2595
Rp2596
(dp2597
g1174
g1047
sg1176
g1186
sg330
g1096
sbsS'gl3.h'
p2598
g304
(g1170
g306
Ntp2599
Rp2600
(dp2601
g1174
g1175
sg1176
g1683
sg330
S'c:/marmalade/7.4/s3e/h/GLES3/gl3.h'
p2602
sbsS'typeinfo.h'
p2603
g304
(g1170
g306
Ntp2604
Rp2605
(dp2606
g1174
g1175
sg1176
g1177
sg330
S'c:/marmalade/7.4/s3e/h/std/c++/typeinfo.h'
p2607
sbsS'temp_defines_release.h'
p2608
g304
(g1170
g306
Ntp2609
Rp2610
(dp2611
g1174
(lp2612
sg1176
(lp2613
g1956
asg330
S'c:/Users/Josh/Documents/GameThrive/SDK/Marmalade/GameThriveExample/build_gamethriveexample_vc12/temp_defines_release.h'
p2614
sbsS'IwMenu.h'
p2615
g304
(g1170
g306
Ntp2616
Rp2617
(dp2618
g1174
g1047
sg1176
g1186
sg330
g1048
sbssS'juice_build_type'
p2619
g4
sS'tests'
p2620
(lp2621
sS'project_name'
p2622
g312
sS'root_file'
p2623
g123
sS'current_root'
p2624
S'c:/Users/Josh/Documents/GameThrive/SDK/Marmalade/GameThriveExample'
p2625
sS'dependencies'
p2626
(lp2627
sS'include_paths'
p2628
(lp2629
S'c:/users/josh/documents/gamethrive/sdk/marmalade/s3egamethrive/h'
p2630
aS'c:/marmalade/7.4/modules/iwutil/h'
p2631
aS'c:/marmalade/7.4/modules/third_party/libjpeg/h'
p2632
aS'c:/marmalade/7.4/modules/third_party/zlib/h'
p2633
aS'c:/marmalade/7.4/modules/third_party/libpng/h'
p2634
aS'c:/marmalade/7.4/s3e/h'
p2635
aS'c:/marmalade/7.4/s3e/h/ext'
p2636
aS'c:/marmalade/7.4/s3e/h/std'
p2637
aS'c:/marmalade/7.4/s3e/h/std/c++'
p2638
aS'c:/marmalade/7.4/s3e/h/ext_legacy'
p2639
aS'c:/marmalade/7.4/s3e/h/legacy'
p2640
asS'weak_frameworks'
p2641
(lp2642
sS'extprojects'
p2643
(dp2644
sg483
(dp2645
g477
(lp2646
(S'c:/Users/Josh/Documents/GameThrive/SDK/Marmalade/GameThriveExample/android/assets/api_key.txt'
p2647
S'api_key.txt'
p2648
I0
tp2649
assS'macro_types'
p2650
(dp2651
g439
I0
sg441
I0
sg442
I0
sg443
I1
sg444
I0
sg445
I0
sg446
I0
sg447
I0
sg449
I0
sg450
I0
sg451
I0
sg453
I0
sg455
I0
sg456
I0
sg457
I0
sg458
I1
sg459
I0
sg460
I0
sg461
I01
sg462
I1
sg463
I0
sg464
I0
ssS'commands'
p2652
(lp2653
sg485
(g966
S'VC12'
p2654
S'X86ARM'
p2655
tp2656
sS'build_libs'
p2657
(dp2658
sg487
g0
sS'frameworks'
p2659
(lp2660
sS'environ'
p2661
(dp2662
sS'target_name_debug'
p2663
g312
sS'builders'
p2664
(dp2665
g477
(dp2666
S'.S'
p2667
(dp2668
S'rvct'
p2669
(lp2670
S'.obj'
p2671
aS'echo ARM Assembling(RVCT) ${SOURCE}...'
p2672
aS'c:/marmalade/7.4/s3e\\rvct\\bin\\armasm -o ${TARGET} ${SOURCE}'
p2673
asg394
(lp2674
g2671
aS'echo ARM Assembling(GCC) ${SOURCE}...'
p2675
aS'c:/marmalade/7.4/s3e\\gcc\\bin\\arm-none-eabi-gcc -c -o ${TARGET} ${SOURCE}'
p2676
asS'ppu'
p2677
(lp2678
S'.a'
p2679
aS'echo PPU Assembling(SNC) ${SOURCE}...'
p2680
aS'c:/marmalade/7.4/s3e\\rvct\\bin\\armasm -o ${TARGET} ${SOURCE}'
p2681
assS'.s'
p2682
g2668
sssS'extproject_names'
p2683
(lp2684
sbtp2685
.