(dp0
S'I3D_PLATFORM_JAVA'
p1
NsS'I3D_ARCH_ALL'
p2
NsS'IW_MKF_ANDROID_SUPPORT_V4'
p3
NsS'IW_SDK'
p4
NsS'IW_MKF_GOOGLE_PLAY_SERVICES_ANDROID'
p5
NsS'IW_PLATFORM_JAVA'
p6
NsS'IW_MKF_S3E_DEFAULT'
p7
NsS'IW_DEBUG'
p8
Ns.