(dp0
S'IW_MKF_S3EGAMETHRIVE_BUILD'
p1
NsS'I3D_PLATFORM_IPHONE'
p2
NsS'I3D_OS_IPHONE'
p3
NsS'IW_ASSERTION_CHANNEL_GAMETHRIVE'
p4
S'1'
p5
sS'IW_SDK'
p6
NsS'IW_USE_ASSERTIONS'
p7
NsS'IW_TRACE_CHANNEL_GAMETHRIVE'
p8
g5
sS'S3E_EXT_GAMETHRIVE'
p9
NsS'IW_TRACE_CHANNEL_GAMETHRIVE_VERBOSE'
p10
S'2'
p11
sS'IW_PLATFORM_IPHONE'
p12
NsS'IW_MKF_EDK'
p13
NsS'S3E_BUILD_EXT'
p14
NsS'IW_DEBUG'
p15
NsS'IW_USE_TRACING'
p16
Ns.