(dp0
S'IW_MKF_S3EGAMETHRIVE_BUILD'
p1
NsS'IW_ASSERTION_CHANNEL_GAMETHRIVE'
p2
S'1'
p3
sS'I3D_OS_LINUX'
p4
NsS'IW_PLATFORM_LINUX'
p5
NsS'I3D_ARCH_ARM'
p6
NsS'IW_SDK'
p7
NsS'IW_USE_ASSERTIONS'
p8
NsS'IW_USE_TRACING'
p9
NsS'IW_TRACE_CHANNEL_GAMETHRIVE'
p10
g3
sS'S3E_EXT_GAMETHRIVE'
p11
NsS'IW_TRACE_CHANNEL_GAMETHRIVE_VERBOSE'
p12
S'2'
p13
sS'S3E_ANDROID'
p14
NsS'S3E_BUILD_EXT'
p15
NsS'IW_MKF_EDK'
p16
NsS'I3D_PLATFORM_LINUX'
p17
NsS'IW_DEBUG'
p18
NsS'ANDROID'
p19
Ns.